(lp0
(I9
I9
tp1
a(I9
I10
tp2
a(I9
I11
tp3
a(I9
I12
tp4
a(I9
I13
tp5
a(I9
I14
tp6
a(I9
I15
tp7
a(I9
I16
tp8
a(I9
I17
tp9
a(I9
I18
tp10
a(I9
I19
tp11
a(I9
I20
tp12
a(I9
I21
tp13
a(I9
I22
tp14
a(I9
I23
tp15
a(I9
I24
tp16
a(I9
I25
tp17
a(I9
I26
tp18
a(I9
I27
tp19
a(I9
I28
tp20
a(I9
I29
tp21
a(I9
I30
tp22
a(I9
I31
tp23
a(I9
I32
tp24
a(I9
I33
tp25
a(I9
I34
tp26
a(I9
I35
tp27
a(I9
I36
tp28
a(I9
I37
tp29
a(I9
I38
tp30
a(I9
I39
tp31
a(I9
I40
tp32
a(I9
I41
tp33
a(I9
I42
tp34
a(I9
I43
tp35
a(I9
I44
tp36
a(I9
I45
tp37
a(I9
I46
tp38
a(I9
I47
tp39
a(I9
I48
tp40
a(I9
I49
tp41
a(I9
I50
tp42
a(I9
I51
tp43
a(I9
I52
tp44
a(I9
I53
tp45
a(I9
I54
tp46
a(I9
I55
tp47
a(I9
I56
tp48
a(I9
I57
tp49
a(I9
I58
tp50
a(I9
I59
tp51
a(I9
I60
tp52
a(I9
I61
tp53
a(I9
I62
tp54
a(I9
I63
tp55
a(I9
I64
tp56
a(I9
I65
tp57
a(I9
I66
tp58
a(I9
I67
tp59
a(I9
I68
tp60
a(I9
I69
tp61
a(I9
I70
tp62
a(I9
I71
tp63
a(I9
I72
tp64
a(I9
I73
tp65
a(I9
I74
tp66
a(I9
I75
tp67
a(I9
I76
tp68
a(I9
I77
tp69
a(I9
I78
tp70
a(I9
I79
tp71
a(I9
I80
tp72
a(I9
I81
tp73
a(I9
I82
tp74
a(I9
I83
tp75
a(I9
I84
tp76
a(I9
I85
tp77
a(I9
I86
tp78
a(I9
I87
tp79
a(I9
I88
tp80
a(I9
I89
tp81
a(I9
I90
tp82
a(I9
I91
tp83
a(I9
I92
tp84
a(I9
I93
tp85
a(I9
I94
tp86
a(I9
I95
tp87
a(I9
I96
tp88
a(I9
I97
tp89
a(I9
I98
tp90
a(I9
I99
tp91
a(I9
I100
tp92
a(I9
I101
tp93
a(I9
I102
tp94
a(I9
I103
tp95
a(I9
I104
tp96
a(I9
I105
tp97
a(I9
I106
tp98
a(I9
I107
tp99
a(I9
I108
tp100
a(I9
I109
tp101
a(I9
I110
tp102
a(I9
I111
tp103
a(I9
I112
tp104
a(I9
I113
tp105
a(I9
I114
tp106
a(I9
I115
tp107
a(I9
I116
tp108
a(I9
I117
tp109
a(I9
I118
tp110
a(I9
I119
tp111
a(I9
I120
tp112
a(I9
I121
tp113
a(I9
I122
tp114
a(I9
I123
tp115
a(I9
I124
tp116
a(I9
I125
tp117
a(I9
I126
tp118
a(I9
I127
tp119
a(I9
I128
tp120
a(I9
I129
tp121
a(I9
I130
tp122
a(I9
I131
tp123
a(I9
I132
tp124
a(I9
I133
tp125
a(I9
I134
tp126
a(I9
I135
tp127
a(I9
I136
tp128
a(I9
I137
tp129
a(I9
I138
tp130
a(I9
I139
tp131
a(I9
I140
tp132
a(I9
I141
tp133
a(I9
I142
tp134
a(I9
I143
tp135
a(I9
I144
tp136
a(I9
I145
tp137
a(I9
I146
tp138
a(I9
I147
tp139
a(I9
I148
tp140
a(I9
I149
tp141
a(I9
I150
tp142
a(I9
I151
tp143
a(I9
I152
tp144
a(I9
I153
tp145
a(I9
I154
tp146
a(I9
I155
tp147
a(I9
I156
tp148
a(I9
I157
tp149
a(I9
I158
tp150
a(I9
I159
tp151
a(I9
I160
tp152
a(I9
I161
tp153
a(I9
I162
tp154
a(I9
I163
tp155
a(I9
I164
tp156
a(I9
I165
tp157
a(I9
I166
tp158
a(I9
I167
tp159
a(I9
I168
tp160
a(I9
I169
tp161
a(I9
I170
tp162
a(I9
I171
tp163
a(I9
I172
tp164
a(I9
I173
tp165
a(I9
I174
tp166
a(I9
I175
tp167
a(I9
I176
tp168
a(I9
I177
tp169
a(I9
I178
tp170
a(I9
I179
tp171
a(I9
I180
tp172
a(I9
I181
tp173
a(I9
I182
tp174
a(I9
I183
tp175
a(I9
I184
tp176
a(I10
I9
tp177
a(I10
I10
tp178
a(I10
I11
tp179
a(I10
I12
tp180
a(I10
I13
tp181
a(I10
I14
tp182
a(I10
I15
tp183
a(I10
I16
tp184
a(I10
I17
tp185
a(I10
I18
tp186
a(I10
I19
tp187
a(I10
I20
tp188
a(I10
I21
tp189
a(I10
I22
tp190
a(I10
I23
tp191
a(I10
I24
tp192
a(I10
I25
tp193
a(I10
I26
tp194
a(I10
I27
tp195
a(I10
I28
tp196
a(I10
I29
tp197
a(I10
I30
tp198
a(I10
I31
tp199
a(I10
I32
tp200
a(I10
I33
tp201
a(I10
I34
tp202
a(I10
I35
tp203
a(I10
I36
tp204
a(I10
I37
tp205
a(I10
I38
tp206
a(I10
I39
tp207
a(I10
I40
tp208
a(I10
I41
tp209
a(I10
I42
tp210
a(I10
I43
tp211
a(I10
I44
tp212
a(I10
I45
tp213
a(I10
I46
tp214
a(I10
I47
tp215
a(I10
I48
tp216
a(I10
I49
tp217
a(I10
I50
tp218
a(I10
I51
tp219
a(I10
I52
tp220
a(I10
I53
tp221
a(I10
I54
tp222
a(I10
I55
tp223
a(I10
I56
tp224
a(I10
I57
tp225
a(I10
I58
tp226
a(I10
I59
tp227
a(I10
I60
tp228
a(I10
I61
tp229
a(I10
I62
tp230
a(I10
I63
tp231
a(I10
I64
tp232
a(I10
I65
tp233
a(I10
I66
tp234
a(I10
I67
tp235
a(I10
I68
tp236
a(I10
I69
tp237
a(I10
I70
tp238
a(I10
I71
tp239
a(I10
I72
tp240
a(I10
I73
tp241
a(I10
I74
tp242
a(I10
I75
tp243
a(I10
I76
tp244
a(I10
I77
tp245
a(I10
I78
tp246
a(I10
I79
tp247
a(I10
I80
tp248
a(I10
I81
tp249
a(I10
I82
tp250
a(I10
I83
tp251
a(I10
I84
tp252
a(I10
I85
tp253
a(I10
I86
tp254
a(I10
I87
tp255
a(I10
I88
tp256
a(I10
I89
tp257
a(I10
I90
tp258
a(I10
I91
tp259
a(I10
I92
tp260
a(I10
I93
tp261
a(I10
I94
tp262
a(I10
I95
tp263
a(I10
I96
tp264
a(I10
I97
tp265
a(I10
I98
tp266
a(I10
I99
tp267
a(I10
I100
tp268
a(I10
I101
tp269
a(I10
I102
tp270
a(I10
I103
tp271
a(I10
I104
tp272
a(I10
I105
tp273
a(I10
I106
tp274
a(I10
I107
tp275
a(I10
I108
tp276
a(I10
I109
tp277
a(I10
I110
tp278
a(I10
I111
tp279
a(I10
I112
tp280
a(I10
I113
tp281
a(I10
I114
tp282
a(I10
I115
tp283
a(I10
I116
tp284
a(I10
I117
tp285
a(I10
I118
tp286
a(I10
I119
tp287
a(I10
I120
tp288
a(I10
I121
tp289
a(I10
I122
tp290
a(I10
I123
tp291
a(I10
I124
tp292
a(I10
I125
tp293
a(I10
I126
tp294
a(I10
I127
tp295
a(I10
I128
tp296
a(I10
I129
tp297
a(I10
I130
tp298
a(I10
I131
tp299
a(I10
I132
tp300
a(I10
I133
tp301
a(I10
I134
tp302
a(I10
I135
tp303
a(I10
I136
tp304
a(I10
I137
tp305
a(I10
I138
tp306
a(I10
I139
tp307
a(I10
I140
tp308
a(I10
I141
tp309
a(I10
I142
tp310
a(I10
I143
tp311
a(I10
I144
tp312
a(I10
I145
tp313
a(I10
I146
tp314
a(I10
I147
tp315
a(I10
I148
tp316
a(I10
I149
tp317
a(I10
I150
tp318
a(I10
I151
tp319
a(I10
I152
tp320
a(I10
I153
tp321
a(I10
I154
tp322
a(I10
I155
tp323
a(I10
I156
tp324
a(I10
I157
tp325
a(I10
I158
tp326
a(I10
I159
tp327
a(I10
I160
tp328
a(I10
I161
tp329
a(I10
I162
tp330
a(I10
I163
tp331
a(I10
I164
tp332
a(I10
I165
tp333
a(I10
I166
tp334
a(I10
I167
tp335
a(I10
I168
tp336
a(I10
I169
tp337
a(I10
I170
tp338
a(I10
I171
tp339
a(I10
I172
tp340
a(I10
I173
tp341
a(I10
I174
tp342
a(I10
I175
tp343
a(I10
I176
tp344
a(I10
I177
tp345
a(I10
I178
tp346
a(I10
I179
tp347
a(I10
I180
tp348
a(I10
I181
tp349
a(I10
I182
tp350
a(I10
I183
tp351
a(I10
I184
tp352
a(I11
I9
tp353
a(I11
I10
tp354
a(I11
I11
tp355
a(I11
I12
tp356
a(I11
I13
tp357
a(I11
I14
tp358
a(I11
I15
tp359
a(I11
I16
tp360
a(I11
I17
tp361
a(I11
I18
tp362
a(I11
I19
tp363
a(I11
I20
tp364
a(I11
I21
tp365
a(I11
I22
tp366
a(I11
I23
tp367
a(I11
I24
tp368
a(I11
I25
tp369
a(I11
I26
tp370
a(I11
I27
tp371
a(I11
I28
tp372
a(I11
I29
tp373
a(I11
I30
tp374
a(I11
I31
tp375
a(I11
I32
tp376
a(I11
I33
tp377
a(I11
I34
tp378
a(I11
I35
tp379
a(I11
I36
tp380
a(I11
I37
tp381
a(I11
I38
tp382
a(I11
I39
tp383
a(I11
I40
tp384
a(I11
I41
tp385
a(I11
I42
tp386
a(I11
I43
tp387
a(I11
I44
tp388
a(I11
I45
tp389
a(I11
I46
tp390
a(I11
I47
tp391
a(I11
I48
tp392
a(I11
I49
tp393
a(I11
I50
tp394
a(I11
I51
tp395
a(I11
I52
tp396
a(I11
I53
tp397
a(I11
I54
tp398
a(I11
I55
tp399
a(I11
I56
tp400
a(I11
I57
tp401
a(I11
I58
tp402
a(I11
I59
tp403
a(I11
I60
tp404
a(I11
I61
tp405
a(I11
I62
tp406
a(I11
I63
tp407
a(I11
I64
tp408
a(I11
I65
tp409
a(I11
I66
tp410
a(I11
I67
tp411
a(I11
I68
tp412
a(I11
I69
tp413
a(I11
I70
tp414
a(I11
I71
tp415
a(I11
I72
tp416
a(I11
I73
tp417
a(I11
I74
tp418
a(I11
I75
tp419
a(I11
I76
tp420
a(I11
I77
tp421
a(I11
I78
tp422
a(I11
I79
tp423
a(I11
I80
tp424
a(I11
I81
tp425
a(I11
I82
tp426
a(I11
I83
tp427
a(I11
I84
tp428
a(I11
I85
tp429
a(I11
I86
tp430
a(I11
I87
tp431
a(I11
I88
tp432
a(I11
I89
tp433
a(I11
I90
tp434
a(I11
I91
tp435
a(I11
I92
tp436
a(I11
I93
tp437
a(I11
I94
tp438
a(I11
I95
tp439
a(I11
I96
tp440
a(I11
I97
tp441
a(I11
I98
tp442
a(I11
I99
tp443
a(I11
I100
tp444
a(I11
I101
tp445
a(I11
I102
tp446
a(I11
I103
tp447
a(I11
I104
tp448
a(I11
I105
tp449
a(I11
I106
tp450
a(I11
I107
tp451
a(I11
I108
tp452
a(I11
I109
tp453
a(I11
I110
tp454
a(I11
I111
tp455
a(I11
I112
tp456
a(I11
I113
tp457
a(I11
I114
tp458
a(I11
I115
tp459
a(I11
I116
tp460
a(I11
I117
tp461
a(I11
I118
tp462
a(I11
I119
tp463
a(I11
I120
tp464
a(I11
I121
tp465
a(I11
I122
tp466
a(I11
I123
tp467
a(I11
I124
tp468
a(I11
I125
tp469
a(I11
I126
tp470
a(I11
I127
tp471
a(I11
I128
tp472
a(I11
I129
tp473
a(I11
I130
tp474
a(I11
I131
tp475
a(I11
I132
tp476
a(I11
I133
tp477
a(I11
I134
tp478
a(I11
I135
tp479
a(I11
I136
tp480
a(I11
I137
tp481
a(I11
I138
tp482
a(I11
I139
tp483
a(I11
I140
tp484
a(I11
I141
tp485
a(I11
I142
tp486
a(I11
I143
tp487
a(I11
I144
tp488
a(I11
I145
tp489
a(I11
I146
tp490
a(I11
I147
tp491
a(I11
I148
tp492
a(I11
I149
tp493
a(I11
I150
tp494
a(I11
I151
tp495
a(I11
I152
tp496
a(I11
I153
tp497
a(I11
I154
tp498
a(I11
I155
tp499
a(I11
I156
tp500
a(I11
I157
tp501
a(I11
I158
tp502
a(I11
I159
tp503
a(I11
I160
tp504
a(I11
I161
tp505
a(I11
I162
tp506
a(I11
I163
tp507
a(I11
I164
tp508
a(I11
I165
tp509
a(I11
I166
tp510
a(I11
I167
tp511
a(I11
I168
tp512
a(I11
I169
tp513
a(I11
I170
tp514
a(I11
I171
tp515
a(I11
I172
tp516
a(I11
I173
tp517
a(I11
I174
tp518
a(I11
I175
tp519
a(I11
I176
tp520
a(I11
I177
tp521
a(I11
I178
tp522
a(I11
I179
tp523
a(I11
I180
tp524
a(I11
I181
tp525
a(I11
I182
tp526
a(I11
I183
tp527
a(I11
I184
tp528
a(I12
I9
tp529
a(I12
I10
tp530
a(I12
I11
tp531
a(I12
I12
tp532
a(I12
I13
tp533
a(I12
I14
tp534
a(I12
I15
tp535
a(I12
I16
tp536
a(I12
I17
tp537
a(I12
I18
tp538
a(I12
I19
tp539
a(I12
I20
tp540
a(I12
I21
tp541
a(I12
I22
tp542
a(I12
I23
tp543
a(I12
I24
tp544
a(I12
I25
tp545
a(I12
I26
tp546
a(I12
I27
tp547
a(I12
I28
tp548
a(I12
I29
tp549
a(I12
I30
tp550
a(I12
I31
tp551
a(I12
I32
tp552
a(I12
I33
tp553
a(I12
I34
tp554
a(I12
I35
tp555
a(I12
I36
tp556
a(I12
I37
tp557
a(I12
I38
tp558
a(I12
I39
tp559
a(I12
I40
tp560
a(I12
I41
tp561
a(I12
I42
tp562
a(I12
I43
tp563
a(I12
I44
tp564
a(I12
I45
tp565
a(I12
I46
tp566
a(I12
I47
tp567
a(I12
I48
tp568
a(I12
I49
tp569
a(I12
I50
tp570
a(I12
I51
tp571
a(I12
I52
tp572
a(I12
I53
tp573
a(I12
I54
tp574
a(I12
I55
tp575
a(I12
I56
tp576
a(I12
I57
tp577
a(I12
I58
tp578
a(I12
I59
tp579
a(I12
I60
tp580
a(I12
I61
tp581
a(I12
I62
tp582
a(I12
I63
tp583
a(I12
I64
tp584
a(I12
I65
tp585
a(I12
I66
tp586
a(I12
I67
tp587
a(I12
I68
tp588
a(I12
I69
tp589
a(I12
I70
tp590
a(I12
I71
tp591
a(I12
I72
tp592
a(I12
I73
tp593
a(I12
I74
tp594
a(I12
I75
tp595
a(I12
I76
tp596
a(I12
I77
tp597
a(I12
I78
tp598
a(I12
I79
tp599
a(I12
I80
tp600
a(I12
I81
tp601
a(I12
I82
tp602
a(I12
I83
tp603
a(I12
I84
tp604
a(I12
I85
tp605
a(I12
I86
tp606
a(I12
I87
tp607
a(I12
I88
tp608
a(I12
I89
tp609
a(I12
I90
tp610
a(I12
I91
tp611
a(I12
I92
tp612
a(I12
I93
tp613
a(I12
I94
tp614
a(I12
I95
tp615
a(I12
I96
tp616
a(I12
I97
tp617
a(I12
I98
tp618
a(I12
I99
tp619
a(I12
I100
tp620
a(I12
I101
tp621
a(I12
I102
tp622
a(I12
I103
tp623
a(I12
I104
tp624
a(I12
I105
tp625
a(I12
I106
tp626
a(I12
I107
tp627
a(I12
I108
tp628
a(I12
I109
tp629
a(I12
I110
tp630
a(I12
I111
tp631
a(I12
I112
tp632
a(I12
I113
tp633
a(I12
I114
tp634
a(I12
I115
tp635
a(I12
I116
tp636
a(I12
I117
tp637
a(I12
I118
tp638
a(I12
I119
tp639
a(I12
I120
tp640
a(I12
I121
tp641
a(I12
I122
tp642
a(I12
I123
tp643
a(I12
I124
tp644
a(I12
I125
tp645
a(I12
I126
tp646
a(I12
I127
tp647
a(I12
I128
tp648
a(I12
I129
tp649
a(I12
I130
tp650
a(I12
I131
tp651
a(I12
I132
tp652
a(I12
I133
tp653
a(I12
I134
tp654
a(I12
I135
tp655
a(I12
I136
tp656
a(I12
I137
tp657
a(I12
I138
tp658
a(I12
I139
tp659
a(I12
I140
tp660
a(I12
I141
tp661
a(I12
I142
tp662
a(I12
I143
tp663
a(I12
I144
tp664
a(I12
I145
tp665
a(I12
I146
tp666
a(I12
I147
tp667
a(I12
I148
tp668
a(I12
I149
tp669
a(I12
I150
tp670
a(I12
I151
tp671
a(I12
I152
tp672
a(I12
I153
tp673
a(I12
I154
tp674
a(I12
I155
tp675
a(I12
I156
tp676
a(I12
I157
tp677
a(I12
I158
tp678
a(I12
I159
tp679
a(I12
I160
tp680
a(I12
I161
tp681
a(I12
I162
tp682
a(I12
I163
tp683
a(I12
I164
tp684
a(I12
I165
tp685
a(I12
I166
tp686
a(I12
I167
tp687
a(I12
I168
tp688
a(I12
I169
tp689
a(I12
I170
tp690
a(I12
I171
tp691
a(I12
I172
tp692
a(I12
I173
tp693
a(I12
I174
tp694
a(I12
I175
tp695
a(I12
I176
tp696
a(I12
I177
tp697
a(I12
I178
tp698
a(I12
I179
tp699
a(I12
I180
tp700
a(I12
I181
tp701
a(I12
I182
tp702
a(I12
I183
tp703
a(I12
I184
tp704
a(I13
I9
tp705
a(I13
I10
tp706
a(I13
I11
tp707
a(I13
I12
tp708
a(I13
I13
tp709
a(I13
I14
tp710
a(I13
I15
tp711
a(I13
I16
tp712
a(I13
I17
tp713
a(I13
I18
tp714
a(I13
I19
tp715
a(I13
I20
tp716
a(I13
I21
tp717
a(I13
I22
tp718
a(I13
I23
tp719
a(I13
I24
tp720
a(I13
I25
tp721
a(I13
I26
tp722
a(I13
I27
tp723
a(I13
I28
tp724
a(I13
I29
tp725
a(I13
I30
tp726
a(I13
I31
tp727
a(I13
I32
tp728
a(I13
I33
tp729
a(I13
I34
tp730
a(I13
I35
tp731
a(I13
I36
tp732
a(I13
I37
tp733
a(I13
I38
tp734
a(I13
I39
tp735
a(I13
I40
tp736
a(I13
I41
tp737
a(I13
I42
tp738
a(I13
I43
tp739
a(I13
I44
tp740
a(I13
I45
tp741
a(I13
I46
tp742
a(I13
I47
tp743
a(I13
I48
tp744
a(I13
I49
tp745
a(I13
I50
tp746
a(I13
I51
tp747
a(I13
I52
tp748
a(I13
I53
tp749
a(I13
I54
tp750
a(I13
I55
tp751
a(I13
I56
tp752
a(I13
I57
tp753
a(I13
I58
tp754
a(I13
I59
tp755
a(I13
I60
tp756
a(I13
I61
tp757
a(I13
I62
tp758
a(I13
I63
tp759
a(I13
I64
tp760
a(I13
I65
tp761
a(I13
I66
tp762
a(I13
I67
tp763
a(I13
I68
tp764
a(I13
I69
tp765
a(I13
I70
tp766
a(I13
I71
tp767
a(I13
I72
tp768
a(I13
I73
tp769
a(I13
I74
tp770
a(I13
I75
tp771
a(I13
I76
tp772
a(I13
I77
tp773
a(I13
I78
tp774
a(I13
I79
tp775
a(I13
I80
tp776
a(I13
I81
tp777
a(I13
I82
tp778
a(I13
I83
tp779
a(I13
I84
tp780
a(I13
I85
tp781
a(I13
I86
tp782
a(I13
I87
tp783
a(I13
I88
tp784
a(I13
I89
tp785
a(I13
I90
tp786
a(I13
I91
tp787
a(I13
I92
tp788
a(I13
I93
tp789
a(I13
I94
tp790
a(I13
I95
tp791
a(I13
I96
tp792
a(I13
I97
tp793
a(I13
I98
tp794
a(I13
I99
tp795
a(I13
I100
tp796
a(I13
I101
tp797
a(I13
I102
tp798
a(I13
I103
tp799
a(I13
I104
tp800
a(I13
I105
tp801
a(I13
I106
tp802
a(I13
I107
tp803
a(I13
I108
tp804
a(I13
I109
tp805
a(I13
I110
tp806
a(I13
I111
tp807
a(I13
I112
tp808
a(I13
I113
tp809
a(I13
I114
tp810
a(I13
I115
tp811
a(I13
I116
tp812
a(I13
I117
tp813
a(I13
I118
tp814
a(I13
I119
tp815
a(I13
I120
tp816
a(I13
I121
tp817
a(I13
I122
tp818
a(I13
I123
tp819
a(I13
I124
tp820
a(I13
I125
tp821
a(I13
I126
tp822
a(I13
I127
tp823
a(I13
I128
tp824
a(I13
I129
tp825
a(I13
I130
tp826
a(I13
I131
tp827
a(I13
I132
tp828
a(I13
I133
tp829
a(I13
I134
tp830
a(I13
I135
tp831
a(I13
I136
tp832
a(I13
I137
tp833
a(I13
I138
tp834
a(I13
I139
tp835
a(I13
I140
tp836
a(I13
I141
tp837
a(I13
I142
tp838
a(I13
I143
tp839
a(I13
I144
tp840
a(I13
I145
tp841
a(I13
I146
tp842
a(I13
I147
tp843
a(I13
I148
tp844
a(I13
I149
tp845
a(I13
I150
tp846
a(I13
I151
tp847
a(I13
I152
tp848
a(I13
I153
tp849
a(I13
I154
tp850
a(I13
I155
tp851
a(I13
I156
tp852
a(I13
I157
tp853
a(I13
I158
tp854
a(I13
I159
tp855
a(I13
I160
tp856
a(I13
I161
tp857
a(I13
I162
tp858
a(I13
I163
tp859
a(I13
I164
tp860
a(I13
I165
tp861
a(I13
I166
tp862
a(I13
I167
tp863
a(I13
I168
tp864
a(I13
I169
tp865
a(I13
I170
tp866
a(I13
I171
tp867
a(I13
I172
tp868
a(I13
I173
tp869
a(I13
I174
tp870
a(I13
I175
tp871
a(I13
I176
tp872
a(I13
I177
tp873
a(I13
I178
tp874
a(I13
I179
tp875
a(I13
I180
tp876
a(I13
I181
tp877
a(I13
I182
tp878
a(I13
I183
tp879
a(I13
I184
tp880
a(I14
I9
tp881
a(I14
I10
tp882
a(I14
I11
tp883
a(I14
I12
tp884
a(I14
I13
tp885
a(I14
I14
tp886
a(I14
I15
tp887
a(I14
I16
tp888
a(I14
I17
tp889
a(I14
I18
tp890
a(I14
I19
tp891
a(I14
I20
tp892
a(I14
I21
tp893
a(I14
I22
tp894
a(I14
I23
tp895
a(I14
I24
tp896
a(I14
I25
tp897
a(I14
I26
tp898
a(I14
I27
tp899
a(I14
I28
tp900
a(I14
I29
tp901
a(I14
I30
tp902
a(I14
I31
tp903
a(I14
I32
tp904
a(I14
I33
tp905
a(I14
I34
tp906
a(I14
I35
tp907
a(I14
I36
tp908
a(I14
I37
tp909
a(I14
I38
tp910
a(I14
I39
tp911
a(I14
I40
tp912
a(I14
I41
tp913
a(I14
I42
tp914
a(I14
I43
tp915
a(I14
I44
tp916
a(I14
I45
tp917
a(I14
I46
tp918
a(I14
I47
tp919
a(I14
I48
tp920
a(I14
I49
tp921
a(I14
I50
tp922
a(I14
I51
tp923
a(I14
I52
tp924
a(I14
I53
tp925
a(I14
I54
tp926
a(I14
I55
tp927
a(I14
I56
tp928
a(I14
I57
tp929
a(I14
I58
tp930
a(I14
I59
tp931
a(I14
I60
tp932
a(I14
I61
tp933
a(I14
I62
tp934
a(I14
I63
tp935
a(I14
I64
tp936
a(I14
I65
tp937
a(I14
I66
tp938
a(I14
I67
tp939
a(I14
I68
tp940
a(I14
I69
tp941
a(I14
I70
tp942
a(I14
I71
tp943
a(I14
I72
tp944
a(I14
I73
tp945
a(I14
I74
tp946
a(I14
I75
tp947
a(I14
I76
tp948
a(I14
I77
tp949
a(I14
I78
tp950
a(I14
I79
tp951
a(I14
I80
tp952
a(I14
I81
tp953
a(I14
I82
tp954
a(I14
I83
tp955
a(I14
I84
tp956
a(I14
I85
tp957
a(I14
I86
tp958
a(I14
I87
tp959
a(I14
I88
tp960
a(I14
I89
tp961
a(I14
I90
tp962
a(I14
I91
tp963
a(I14
I92
tp964
a(I14
I93
tp965
a(I14
I94
tp966
a(I14
I95
tp967
a(I14
I96
tp968
a(I14
I97
tp969
a(I14
I98
tp970
a(I14
I99
tp971
a(I14
I100
tp972
a(I14
I101
tp973
a(I14
I102
tp974
a(I14
I103
tp975
a(I14
I104
tp976
a(I14
I105
tp977
a(I14
I106
tp978
a(I14
I107
tp979
a(I14
I108
tp980
a(I14
I109
tp981
a(I14
I110
tp982
a(I14
I111
tp983
a(I14
I112
tp984
a(I14
I113
tp985
a(I14
I114
tp986
a(I14
I115
tp987
a(I14
I116
tp988
a(I14
I117
tp989
a(I14
I118
tp990
a(I14
I119
tp991
a(I14
I120
tp992
a(I14
I121
tp993
a(I14
I122
tp994
a(I14
I123
tp995
a(I14
I124
tp996
a(I14
I125
tp997
a(I14
I126
tp998
a(I14
I127
tp999
a(I14
I128
tp1000
a(I14
I129
tp1001
a(I14
I130
tp1002
a(I14
I131
tp1003
a(I14
I132
tp1004
a(I14
I133
tp1005
a(I14
I134
tp1006
a(I14
I135
tp1007
a(I14
I136
tp1008
a(I14
I137
tp1009
a(I14
I138
tp1010
a(I14
I139
tp1011
a(I14
I140
tp1012
a(I14
I141
tp1013
a(I14
I142
tp1014
a(I14
I143
tp1015
a(I14
I144
tp1016
a(I14
I145
tp1017
a(I14
I146
tp1018
a(I14
I147
tp1019
a(I14
I148
tp1020
a(I14
I149
tp1021
a(I14
I150
tp1022
a(I14
I151
tp1023
a(I14
I152
tp1024
a(I14
I153
tp1025
a(I14
I154
tp1026
a(I14
I155
tp1027
a(I14
I156
tp1028
a(I14
I157
tp1029
a(I14
I158
tp1030
a(I14
I159
tp1031
a(I14
I160
tp1032
a(I14
I161
tp1033
a(I14
I162
tp1034
a(I14
I163
tp1035
a(I14
I164
tp1036
a(I14
I165
tp1037
a(I14
I166
tp1038
a(I14
I167
tp1039
a(I14
I168
tp1040
a(I14
I169
tp1041
a(I14
I170
tp1042
a(I14
I171
tp1043
a(I14
I172
tp1044
a(I14
I173
tp1045
a(I14
I174
tp1046
a(I14
I175
tp1047
a(I14
I176
tp1048
a(I14
I177
tp1049
a(I14
I178
tp1050
a(I14
I179
tp1051
a(I14
I180
tp1052
a(I14
I181
tp1053
a(I14
I182
tp1054
a(I14
I183
tp1055
a(I14
I184
tp1056
a(I15
I9
tp1057
a(I15
I10
tp1058
a(I15
I11
tp1059
a(I15
I12
tp1060
a(I15
I13
tp1061
a(I15
I14
tp1062
a(I15
I15
tp1063
a(I15
I16
tp1064
a(I15
I17
tp1065
a(I15
I18
tp1066
a(I15
I19
tp1067
a(I15
I20
tp1068
a(I15
I21
tp1069
a(I15
I22
tp1070
a(I15
I23
tp1071
a(I15
I24
tp1072
a(I15
I25
tp1073
a(I15
I26
tp1074
a(I15
I27
tp1075
a(I15
I28
tp1076
a(I15
I29
tp1077
a(I15
I30
tp1078
a(I15
I31
tp1079
a(I15
I32
tp1080
a(I15
I33
tp1081
a(I15
I34
tp1082
a(I15
I35
tp1083
a(I15
I36
tp1084
a(I15
I37
tp1085
a(I15
I38
tp1086
a(I15
I39
tp1087
a(I15
I40
tp1088
a(I15
I41
tp1089
a(I15
I42
tp1090
a(I15
I43
tp1091
a(I15
I44
tp1092
a(I15
I45
tp1093
a(I15
I46
tp1094
a(I15
I47
tp1095
a(I15
I48
tp1096
a(I15
I49
tp1097
a(I15
I50
tp1098
a(I15
I51
tp1099
a(I15
I52
tp1100
a(I15
I53
tp1101
a(I15
I54
tp1102
a(I15
I55
tp1103
a(I15
I56
tp1104
a(I15
I57
tp1105
a(I15
I58
tp1106
a(I15
I59
tp1107
a(I15
I60
tp1108
a(I15
I61
tp1109
a(I15
I62
tp1110
a(I15
I63
tp1111
a(I15
I64
tp1112
a(I15
I65
tp1113
a(I15
I66
tp1114
a(I15
I67
tp1115
a(I15
I68
tp1116
a(I15
I69
tp1117
a(I15
I70
tp1118
a(I15
I71
tp1119
a(I15
I72
tp1120
a(I15
I73
tp1121
a(I15
I74
tp1122
a(I15
I75
tp1123
a(I15
I76
tp1124
a(I15
I77
tp1125
a(I15
I78
tp1126
a(I15
I79
tp1127
a(I15
I80
tp1128
a(I15
I81
tp1129
a(I15
I82
tp1130
a(I15
I83
tp1131
a(I15
I84
tp1132
a(I15
I85
tp1133
a(I15
I86
tp1134
a(I15
I87
tp1135
a(I15
I88
tp1136
a(I15
I89
tp1137
a(I15
I90
tp1138
a(I15
I91
tp1139
a(I15
I92
tp1140
a(I15
I93
tp1141
a(I15
I94
tp1142
a(I15
I95
tp1143
a(I15
I96
tp1144
a(I15
I97
tp1145
a(I15
I98
tp1146
a(I15
I99
tp1147
a(I15
I100
tp1148
a(I15
I101
tp1149
a(I15
I102
tp1150
a(I15
I103
tp1151
a(I15
I104
tp1152
a(I15
I105
tp1153
a(I15
I106
tp1154
a(I15
I107
tp1155
a(I15
I108
tp1156
a(I15
I109
tp1157
a(I15
I110
tp1158
a(I15
I111
tp1159
a(I15
I112
tp1160
a(I15
I113
tp1161
a(I15
I114
tp1162
a(I15
I115
tp1163
a(I15
I116
tp1164
a(I15
I117
tp1165
a(I15
I118
tp1166
a(I15
I119
tp1167
a(I15
I120
tp1168
a(I15
I121
tp1169
a(I15
I122
tp1170
a(I15
I123
tp1171
a(I15
I124
tp1172
a(I15
I125
tp1173
a(I15
I126
tp1174
a(I15
I127
tp1175
a(I15
I128
tp1176
a(I15
I129
tp1177
a(I15
I130
tp1178
a(I15
I131
tp1179
a(I15
I132
tp1180
a(I15
I133
tp1181
a(I15
I134
tp1182
a(I15
I135
tp1183
a(I15
I136
tp1184
a(I15
I137
tp1185
a(I15
I138
tp1186
a(I15
I139
tp1187
a(I15
I140
tp1188
a(I15
I141
tp1189
a(I15
I142
tp1190
a(I15
I143
tp1191
a(I15
I144
tp1192
a(I15
I145
tp1193
a(I15
I146
tp1194
a(I15
I147
tp1195
a(I15
I148
tp1196
a(I15
I149
tp1197
a(I15
I150
tp1198
a(I15
I151
tp1199
a(I15
I152
tp1200
a(I15
I153
tp1201
a(I15
I154
tp1202
a(I15
I155
tp1203
a(I15
I156
tp1204
a(I15
I157
tp1205
a(I15
I158
tp1206
a(I15
I159
tp1207
a(I15
I160
tp1208
a(I15
I161
tp1209
a(I15
I162
tp1210
a(I15
I163
tp1211
a(I15
I164
tp1212
a(I15
I165
tp1213
a(I15
I166
tp1214
a(I15
I167
tp1215
a(I15
I168
tp1216
a(I15
I169
tp1217
a(I15
I170
tp1218
a(I15
I171
tp1219
a(I15
I172
tp1220
a(I15
I173
tp1221
a(I15
I174
tp1222
a(I15
I175
tp1223
a(I15
I176
tp1224
a(I15
I177
tp1225
a(I15
I178
tp1226
a(I15
I179
tp1227
a(I15
I180
tp1228
a(I15
I181
tp1229
a(I15
I182
tp1230
a(I15
I183
tp1231
a(I15
I184
tp1232
a(I16
I9
tp1233
a(I16
I10
tp1234
a(I16
I11
tp1235
a(I16
I12
tp1236
a(I16
I13
tp1237
a(I16
I14
tp1238
a(I16
I176
tp1239
a(I16
I177
tp1240
a(I16
I178
tp1241
a(I16
I179
tp1242
a(I16
I180
tp1243
a(I16
I181
tp1244
a(I16
I182
tp1245
a(I16
I183
tp1246
a(I16
I184
tp1247
a(I17
I9
tp1248
a(I17
I10
tp1249
a(I17
I11
tp1250
a(I17
I12
tp1251
a(I17
I13
tp1252
a(I17
I14
tp1253
a(I17
I176
tp1254
a(I17
I177
tp1255
a(I17
I178
tp1256
a(I17
I179
tp1257
a(I17
I180
tp1258
a(I17
I181
tp1259
a(I17
I182
tp1260
a(I17
I183
tp1261
a(I17
I184
tp1262
a(I18
I9
tp1263
a(I18
I10
tp1264
a(I18
I11
tp1265
a(I18
I12
tp1266
a(I18
I13
tp1267
a(I18
I14
tp1268
a(I18
I176
tp1269
a(I18
I177
tp1270
a(I18
I178
tp1271
a(I18
I179
tp1272
a(I18
I180
tp1273
a(I18
I181
tp1274
a(I18
I182
tp1275
a(I18
I183
tp1276
a(I18
I184
tp1277
a(I19
I9
tp1278
a(I19
I10
tp1279
a(I19
I11
tp1280
a(I19
I12
tp1281
a(I19
I13
tp1282
a(I19
I14
tp1283
a(I19
I176
tp1284
a(I19
I177
tp1285
a(I19
I178
tp1286
a(I19
I179
tp1287
a(I19
I180
tp1288
a(I19
I181
tp1289
a(I19
I182
tp1290
a(I19
I183
tp1291
a(I19
I184
tp1292
a(I20
I9
tp1293
a(I20
I10
tp1294
a(I20
I11
tp1295
a(I20
I12
tp1296
a(I20
I13
tp1297
a(I20
I14
tp1298
a(I20
I176
tp1299
a(I20
I177
tp1300
a(I20
I178
tp1301
a(I20
I179
tp1302
a(I20
I180
tp1303
a(I20
I181
tp1304
a(I20
I182
tp1305
a(I20
I183
tp1306
a(I20
I184
tp1307
a(I21
I9
tp1308
a(I21
I10
tp1309
a(I21
I11
tp1310
a(I21
I12
tp1311
a(I21
I13
tp1312
a(I21
I14
tp1313
a(I21
I176
tp1314
a(I21
I177
tp1315
a(I21
I178
tp1316
a(I21
I179
tp1317
a(I21
I180
tp1318
a(I21
I181
tp1319
a(I21
I182
tp1320
a(I21
I183
tp1321
a(I21
I184
tp1322
a(I22
I9
tp1323
a(I22
I10
tp1324
a(I22
I11
tp1325
a(I22
I12
tp1326
a(I22
I13
tp1327
a(I22
I14
tp1328
a(I22
I176
tp1329
a(I22
I177
tp1330
a(I22
I178
tp1331
a(I22
I179
tp1332
a(I22
I180
tp1333
a(I22
I181
tp1334
a(I22
I182
tp1335
a(I22
I183
tp1336
a(I22
I184
tp1337
a(I23
I9
tp1338
a(I23
I10
tp1339
a(I23
I11
tp1340
a(I23
I12
tp1341
a(I23
I13
tp1342
a(I23
I14
tp1343
a(I23
I176
tp1344
a(I23
I177
tp1345
a(I23
I178
tp1346
a(I23
I179
tp1347
a(I23
I180
tp1348
a(I23
I181
tp1349
a(I23
I182
tp1350
a(I23
I183
tp1351
a(I23
I184
tp1352
a(I24
I9
tp1353
a(I24
I10
tp1354
a(I24
I11
tp1355
a(I24
I12
tp1356
a(I24
I13
tp1357
a(I24
I14
tp1358
a(I24
I176
tp1359
a(I24
I177
tp1360
a(I24
I178
tp1361
a(I24
I179
tp1362
a(I24
I180
tp1363
a(I24
I181
tp1364
a(I24
I182
tp1365
a(I24
I183
tp1366
a(I24
I184
tp1367
a(I25
I9
tp1368
a(I25
I10
tp1369
a(I25
I11
tp1370
a(I25
I12
tp1371
a(I25
I13
tp1372
a(I25
I14
tp1373
a(I25
I176
tp1374
a(I25
I177
tp1375
a(I25
I178
tp1376
a(I25
I179
tp1377
a(I25
I180
tp1378
a(I25
I181
tp1379
a(I25
I182
tp1380
a(I25
I183
tp1381
a(I25
I184
tp1382
a(I26
I9
tp1383
a(I26
I10
tp1384
a(I26
I11
tp1385
a(I26
I12
tp1386
a(I26
I13
tp1387
a(I26
I14
tp1388
a(I26
I176
tp1389
a(I26
I177
tp1390
a(I26
I178
tp1391
a(I26
I179
tp1392
a(I26
I180
tp1393
a(I26
I181
tp1394
a(I26
I182
tp1395
a(I26
I183
tp1396
a(I26
I184
tp1397
a(I27
I9
tp1398
a(I27
I10
tp1399
a(I27
I11
tp1400
a(I27
I12
tp1401
a(I27
I13
tp1402
a(I27
I14
tp1403
a(I27
I176
tp1404
a(I27
I177
tp1405
a(I27
I178
tp1406
a(I27
I179
tp1407
a(I27
I180
tp1408
a(I27
I181
tp1409
a(I27
I182
tp1410
a(I27
I183
tp1411
a(I27
I184
tp1412
a(I28
I9
tp1413
a(I28
I10
tp1414
a(I28
I11
tp1415
a(I28
I12
tp1416
a(I28
I13
tp1417
a(I28
I14
tp1418
a(I28
I176
tp1419
a(I28
I177
tp1420
a(I28
I178
tp1421
a(I28
I179
tp1422
a(I28
I180
tp1423
a(I28
I181
tp1424
a(I28
I182
tp1425
a(I28
I183
tp1426
a(I28
I184
tp1427
a(I29
I9
tp1428
a(I29
I10
tp1429
a(I29
I11
tp1430
a(I29
I12
tp1431
a(I29
I13
tp1432
a(I29
I14
tp1433
a(I29
I176
tp1434
a(I29
I177
tp1435
a(I29
I178
tp1436
a(I29
I179
tp1437
a(I29
I180
tp1438
a(I29
I181
tp1439
a(I29
I182
tp1440
a(I29
I183
tp1441
a(I29
I184
tp1442
a(I30
I9
tp1443
a(I30
I10
tp1444
a(I30
I11
tp1445
a(I30
I12
tp1446
a(I30
I13
tp1447
a(I30
I14
tp1448
a(I30
I176
tp1449
a(I30
I177
tp1450
a(I30
I178
tp1451
a(I30
I179
tp1452
a(I30
I180
tp1453
a(I30
I181
tp1454
a(I30
I182
tp1455
a(I30
I183
tp1456
a(I30
I184
tp1457
a(I31
I9
tp1458
a(I31
I10
tp1459
a(I31
I11
tp1460
a(I31
I12
tp1461
a(I31
I13
tp1462
a(I31
I14
tp1463
a(I31
I176
tp1464
a(I31
I177
tp1465
a(I31
I178
tp1466
a(I31
I179
tp1467
a(I31
I180
tp1468
a(I31
I181
tp1469
a(I31
I182
tp1470
a(I31
I183
tp1471
a(I31
I184
tp1472
a(I32
I9
tp1473
a(I32
I10
tp1474
a(I32
I11
tp1475
a(I32
I12
tp1476
a(I32
I13
tp1477
a(I32
I14
tp1478
a(I32
I176
tp1479
a(I32
I177
tp1480
a(I32
I178
tp1481
a(I32
I179
tp1482
a(I32
I180
tp1483
a(I32
I181
tp1484
a(I32
I182
tp1485
a(I32
I183
tp1486
a(I32
I184
tp1487
a(I33
I9
tp1488
a(I33
I10
tp1489
a(I33
I11
tp1490
a(I33
I12
tp1491
a(I33
I13
tp1492
a(I33
I14
tp1493
a(I33
I176
tp1494
a(I33
I177
tp1495
a(I33
I178
tp1496
a(I33
I179
tp1497
a(I33
I180
tp1498
a(I33
I181
tp1499
a(I33
I182
tp1500
a(I33
I183
tp1501
a(I33
I184
tp1502
a(I34
I9
tp1503
a(I34
I10
tp1504
a(I34
I11
tp1505
a(I34
I12
tp1506
a(I34
I13
tp1507
a(I34
I14
tp1508
a(I34
I176
tp1509
a(I34
I177
tp1510
a(I34
I178
tp1511
a(I34
I179
tp1512
a(I34
I180
tp1513
a(I34
I181
tp1514
a(I34
I182
tp1515
a(I34
I183
tp1516
a(I34
I184
tp1517
a(I35
I9
tp1518
a(I35
I10
tp1519
a(I35
I11
tp1520
a(I35
I12
tp1521
a(I35
I13
tp1522
a(I35
I14
tp1523
a(I35
I176
tp1524
a(I35
I177
tp1525
a(I35
I178
tp1526
a(I35
I179
tp1527
a(I35
I180
tp1528
a(I35
I181
tp1529
a(I35
I182
tp1530
a(I35
I183
tp1531
a(I35
I184
tp1532
a(I36
I9
tp1533
a(I36
I10
tp1534
a(I36
I11
tp1535
a(I36
I12
tp1536
a(I36
I13
tp1537
a(I36
I14
tp1538
a(I36
I176
tp1539
a(I36
I177
tp1540
a(I36
I178
tp1541
a(I36
I179
tp1542
a(I36
I180
tp1543
a(I36
I181
tp1544
a(I36
I182
tp1545
a(I36
I183
tp1546
a(I36
I184
tp1547
a(I37
I9
tp1548
a(I37
I10
tp1549
a(I37
I11
tp1550
a(I37
I12
tp1551
a(I37
I13
tp1552
a(I37
I14
tp1553
a(I37
I176
tp1554
a(I37
I177
tp1555
a(I37
I178
tp1556
a(I37
I179
tp1557
a(I37
I180
tp1558
a(I37
I181
tp1559
a(I37
I182
tp1560
a(I37
I183
tp1561
a(I37
I184
tp1562
a(I38
I9
tp1563
a(I38
I10
tp1564
a(I38
I11
tp1565
a(I38
I12
tp1566
a(I38
I13
tp1567
a(I38
I14
tp1568
a(I38
I176
tp1569
a(I38
I177
tp1570
a(I38
I178
tp1571
a(I38
I179
tp1572
a(I38
I180
tp1573
a(I38
I181
tp1574
a(I38
I182
tp1575
a(I38
I183
tp1576
a(I38
I184
tp1577
a(I39
I9
tp1578
a(I39
I10
tp1579
a(I39
I11
tp1580
a(I39
I12
tp1581
a(I39
I13
tp1582
a(I39
I14
tp1583
a(I39
I176
tp1584
a(I39
I177
tp1585
a(I39
I178
tp1586
a(I39
I179
tp1587
a(I39
I180
tp1588
a(I39
I181
tp1589
a(I39
I182
tp1590
a(I39
I183
tp1591
a(I39
I184
tp1592
a(I40
I9
tp1593
a(I40
I10
tp1594
a(I40
I11
tp1595
a(I40
I12
tp1596
a(I40
I13
tp1597
a(I40
I14
tp1598
a(I40
I176
tp1599
a(I40
I177
tp1600
a(I40
I178
tp1601
a(I40
I179
tp1602
a(I40
I180
tp1603
a(I40
I181
tp1604
a(I40
I182
tp1605
a(I40
I183
tp1606
a(I40
I184
tp1607
a(I41
I9
tp1608
a(I41
I10
tp1609
a(I41
I11
tp1610
a(I41
I12
tp1611
a(I41
I13
tp1612
a(I41
I14
tp1613
a(I41
I176
tp1614
a(I41
I177
tp1615
a(I41
I178
tp1616
a(I41
I179
tp1617
a(I41
I180
tp1618
a(I41
I181
tp1619
a(I41
I182
tp1620
a(I41
I183
tp1621
a(I41
I184
tp1622
a(I42
I9
tp1623
a(I42
I10
tp1624
a(I42
I11
tp1625
a(I42
I12
tp1626
a(I42
I13
tp1627
a(I42
I14
tp1628
a(I42
I176
tp1629
a(I42
I177
tp1630
a(I42
I178
tp1631
a(I42
I179
tp1632
a(I42
I180
tp1633
a(I42
I181
tp1634
a(I42
I182
tp1635
a(I42
I183
tp1636
a(I42
I184
tp1637
a(I43
I9
tp1638
a(I43
I10
tp1639
a(I43
I11
tp1640
a(I43
I12
tp1641
a(I43
I13
tp1642
a(I43
I14
tp1643
a(I43
I176
tp1644
a(I43
I177
tp1645
a(I43
I178
tp1646
a(I43
I179
tp1647
a(I43
I180
tp1648
a(I43
I181
tp1649
a(I43
I182
tp1650
a(I43
I183
tp1651
a(I43
I184
tp1652
a(I44
I9
tp1653
a(I44
I10
tp1654
a(I44
I11
tp1655
a(I44
I12
tp1656
a(I44
I13
tp1657
a(I44
I14
tp1658
a(I44
I176
tp1659
a(I44
I177
tp1660
a(I44
I178
tp1661
a(I44
I179
tp1662
a(I44
I180
tp1663
a(I44
I181
tp1664
a(I44
I182
tp1665
a(I44
I183
tp1666
a(I44
I184
tp1667
a(I45
I9
tp1668
a(I45
I10
tp1669
a(I45
I11
tp1670
a(I45
I12
tp1671
a(I45
I13
tp1672
a(I45
I14
tp1673
a(I45
I176
tp1674
a(I45
I177
tp1675
a(I45
I178
tp1676
a(I45
I179
tp1677
a(I45
I180
tp1678
a(I45
I181
tp1679
a(I45
I182
tp1680
a(I45
I183
tp1681
a(I45
I184
tp1682
a(I46
I9
tp1683
a(I46
I10
tp1684
a(I46
I11
tp1685
a(I46
I12
tp1686
a(I46
I13
tp1687
a(I46
I14
tp1688
a(I46
I176
tp1689
a(I46
I177
tp1690
a(I46
I178
tp1691
a(I46
I179
tp1692
a(I46
I180
tp1693
a(I46
I181
tp1694
a(I46
I182
tp1695
a(I46
I183
tp1696
a(I46
I184
tp1697
a(I47
I9
tp1698
a(I47
I10
tp1699
a(I47
I11
tp1700
a(I47
I12
tp1701
a(I47
I13
tp1702
a(I47
I14
tp1703
a(I47
I176
tp1704
a(I47
I177
tp1705
a(I47
I178
tp1706
a(I47
I179
tp1707
a(I47
I180
tp1708
a(I47
I181
tp1709
a(I47
I182
tp1710
a(I47
I183
tp1711
a(I47
I184
tp1712
a(I48
I9
tp1713
a(I48
I10
tp1714
a(I48
I11
tp1715
a(I48
I12
tp1716
a(I48
I13
tp1717
a(I48
I14
tp1718
a(I48
I176
tp1719
a(I48
I177
tp1720
a(I48
I178
tp1721
a(I48
I179
tp1722
a(I48
I180
tp1723
a(I48
I181
tp1724
a(I48
I182
tp1725
a(I48
I183
tp1726
a(I48
I184
tp1727
a(I49
I9
tp1728
a(I49
I10
tp1729
a(I49
I11
tp1730
a(I49
I12
tp1731
a(I49
I13
tp1732
a(I49
I14
tp1733
a(I49
I176
tp1734
a(I49
I177
tp1735
a(I49
I178
tp1736
a(I49
I179
tp1737
a(I49
I180
tp1738
a(I49
I181
tp1739
a(I49
I182
tp1740
a(I49
I183
tp1741
a(I49
I184
tp1742
a(I50
I9
tp1743
a(I50
I10
tp1744
a(I50
I11
tp1745
a(I50
I12
tp1746
a(I50
I13
tp1747
a(I50
I14
tp1748
a(I50
I176
tp1749
a(I50
I177
tp1750
a(I50
I178
tp1751
a(I50
I179
tp1752
a(I50
I180
tp1753
a(I50
I181
tp1754
a(I50
I182
tp1755
a(I50
I183
tp1756
a(I50
I184
tp1757
a(I51
I9
tp1758
a(I51
I10
tp1759
a(I51
I11
tp1760
a(I51
I12
tp1761
a(I51
I13
tp1762
a(I51
I14
tp1763
a(I51
I176
tp1764
a(I51
I177
tp1765
a(I51
I178
tp1766
a(I51
I179
tp1767
a(I51
I180
tp1768
a(I51
I181
tp1769
a(I51
I182
tp1770
a(I51
I183
tp1771
a(I51
I184
tp1772
a(I52
I9
tp1773
a(I52
I10
tp1774
a(I52
I11
tp1775
a(I52
I12
tp1776
a(I52
I13
tp1777
a(I52
I14
tp1778
a(I52
I176
tp1779
a(I52
I177
tp1780
a(I52
I178
tp1781
a(I52
I179
tp1782
a(I52
I180
tp1783
a(I52
I181
tp1784
a(I52
I182
tp1785
a(I52
I183
tp1786
a(I52
I184
tp1787
a(I53
I9
tp1788
a(I53
I10
tp1789
a(I53
I11
tp1790
a(I53
I12
tp1791
a(I53
I13
tp1792
a(I53
I14
tp1793
a(I53
I176
tp1794
a(I53
I177
tp1795
a(I53
I178
tp1796
a(I53
I179
tp1797
a(I53
I180
tp1798
a(I53
I181
tp1799
a(I53
I182
tp1800
a(I53
I183
tp1801
a(I53
I184
tp1802
a(I54
I9
tp1803
a(I54
I10
tp1804
a(I54
I11
tp1805
a(I54
I12
tp1806
a(I54
I13
tp1807
a(I54
I14
tp1808
a(I54
I176
tp1809
a(I54
I177
tp1810
a(I54
I178
tp1811
a(I54
I179
tp1812
a(I54
I180
tp1813
a(I54
I181
tp1814
a(I54
I182
tp1815
a(I54
I183
tp1816
a(I54
I184
tp1817
a(I55
I9
tp1818
a(I55
I10
tp1819
a(I55
I11
tp1820
a(I55
I12
tp1821
a(I55
I13
tp1822
a(I55
I14
tp1823
a(I55
I176
tp1824
a(I55
I177
tp1825
a(I55
I178
tp1826
a(I55
I179
tp1827
a(I55
I180
tp1828
a(I55
I181
tp1829
a(I55
I182
tp1830
a(I55
I183
tp1831
a(I55
I184
tp1832
a(I56
I9
tp1833
a(I56
I10
tp1834
a(I56
I11
tp1835
a(I56
I12
tp1836
a(I56
I13
tp1837
a(I56
I14
tp1838
a(I56
I176
tp1839
a(I56
I177
tp1840
a(I56
I178
tp1841
a(I56
I179
tp1842
a(I56
I180
tp1843
a(I56
I181
tp1844
a(I56
I182
tp1845
a(I56
I183
tp1846
a(I56
I184
tp1847
a(I57
I9
tp1848
a(I57
I10
tp1849
a(I57
I11
tp1850
a(I57
I12
tp1851
a(I57
I13
tp1852
a(I57
I14
tp1853
a(I57
I176
tp1854
a(I57
I177
tp1855
a(I57
I178
tp1856
a(I57
I179
tp1857
a(I57
I180
tp1858
a(I57
I181
tp1859
a(I57
I182
tp1860
a(I57
I183
tp1861
a(I57
I184
tp1862
a(I58
I9
tp1863
a(I58
I10
tp1864
a(I58
I11
tp1865
a(I58
I12
tp1866
a(I58
I13
tp1867
a(I58
I14
tp1868
a(I58
I176
tp1869
a(I58
I177
tp1870
a(I58
I178
tp1871
a(I58
I179
tp1872
a(I58
I180
tp1873
a(I58
I181
tp1874
a(I58
I182
tp1875
a(I58
I183
tp1876
a(I58
I184
tp1877
a(I59
I9
tp1878
a(I59
I10
tp1879
a(I59
I11
tp1880
a(I59
I12
tp1881
a(I59
I13
tp1882
a(I59
I14
tp1883
a(I59
I176
tp1884
a(I59
I177
tp1885
a(I59
I178
tp1886
a(I59
I179
tp1887
a(I59
I180
tp1888
a(I59
I181
tp1889
a(I59
I182
tp1890
a(I59
I183
tp1891
a(I59
I184
tp1892
a(I60
I9
tp1893
a(I60
I10
tp1894
a(I60
I11
tp1895
a(I60
I12
tp1896
a(I60
I13
tp1897
a(I60
I14
tp1898
a(I60
I176
tp1899
a(I60
I177
tp1900
a(I60
I178
tp1901
a(I60
I179
tp1902
a(I60
I180
tp1903
a(I60
I181
tp1904
a(I60
I182
tp1905
a(I60
I183
tp1906
a(I60
I184
tp1907
a(I61
I9
tp1908
a(I61
I10
tp1909
a(I61
I11
tp1910
a(I61
I12
tp1911
a(I61
I13
tp1912
a(I61
I14
tp1913
a(I61
I176
tp1914
a(I61
I177
tp1915
a(I61
I178
tp1916
a(I61
I179
tp1917
a(I61
I180
tp1918
a(I61
I181
tp1919
a(I61
I182
tp1920
a(I61
I183
tp1921
a(I61
I184
tp1922
a(I62
I9
tp1923
a(I62
I10
tp1924
a(I62
I11
tp1925
a(I62
I12
tp1926
a(I62
I13
tp1927
a(I62
I14
tp1928
a(I62
I176
tp1929
a(I62
I177
tp1930
a(I62
I178
tp1931
a(I62
I179
tp1932
a(I62
I180
tp1933
a(I62
I181
tp1934
a(I62
I182
tp1935
a(I62
I183
tp1936
a(I62
I184
tp1937
a(I63
I9
tp1938
a(I63
I10
tp1939
a(I63
I11
tp1940
a(I63
I12
tp1941
a(I63
I13
tp1942
a(I63
I14
tp1943
a(I63
I176
tp1944
a(I63
I177
tp1945
a(I63
I178
tp1946
a(I63
I179
tp1947
a(I63
I180
tp1948
a(I63
I181
tp1949
a(I63
I182
tp1950
a(I63
I183
tp1951
a(I63
I184
tp1952
a(I64
I9
tp1953
a(I64
I10
tp1954
a(I64
I11
tp1955
a(I64
I12
tp1956
a(I64
I13
tp1957
a(I64
I14
tp1958
a(I64
I176
tp1959
a(I64
I177
tp1960
a(I64
I178
tp1961
a(I64
I179
tp1962
a(I64
I180
tp1963
a(I64
I181
tp1964
a(I64
I182
tp1965
a(I64
I183
tp1966
a(I64
I184
tp1967
a(I65
I9
tp1968
a(I65
I10
tp1969
a(I65
I11
tp1970
a(I65
I12
tp1971
a(I65
I13
tp1972
a(I65
I14
tp1973
a(I65
I176
tp1974
a(I65
I177
tp1975
a(I65
I178
tp1976
a(I65
I179
tp1977
a(I65
I180
tp1978
a(I65
I181
tp1979
a(I65
I182
tp1980
a(I65
I183
tp1981
a(I65
I184
tp1982
a(I66
I9
tp1983
a(I66
I10
tp1984
a(I66
I11
tp1985
a(I66
I12
tp1986
a(I66
I13
tp1987
a(I66
I14
tp1988
a(I66
I176
tp1989
a(I66
I177
tp1990
a(I66
I178
tp1991
a(I66
I179
tp1992
a(I66
I180
tp1993
a(I66
I181
tp1994
a(I66
I182
tp1995
a(I66
I183
tp1996
a(I66
I184
tp1997
a(I67
I9
tp1998
a(I67
I10
tp1999
a(I67
I11
tp2000
a(I67
I12
tp2001
a(I67
I13
tp2002
a(I67
I14
tp2003
a(I67
I176
tp2004
a(I67
I177
tp2005
a(I67
I178
tp2006
a(I67
I179
tp2007
a(I67
I180
tp2008
a(I67
I181
tp2009
a(I67
I182
tp2010
a(I67
I183
tp2011
a(I67
I184
tp2012
a(I68
I9
tp2013
a(I68
I10
tp2014
a(I68
I11
tp2015
a(I68
I12
tp2016
a(I68
I13
tp2017
a(I68
I14
tp2018
a(I68
I176
tp2019
a(I68
I177
tp2020
a(I68
I178
tp2021
a(I68
I179
tp2022
a(I68
I180
tp2023
a(I68
I181
tp2024
a(I68
I182
tp2025
a(I68
I183
tp2026
a(I68
I184
tp2027
a(I69
I9
tp2028
a(I69
I10
tp2029
a(I69
I11
tp2030
a(I69
I12
tp2031
a(I69
I13
tp2032
a(I69
I14
tp2033
a(I69
I176
tp2034
a(I69
I177
tp2035
a(I69
I178
tp2036
a(I69
I179
tp2037
a(I69
I180
tp2038
a(I69
I181
tp2039
a(I69
I182
tp2040
a(I69
I183
tp2041
a(I69
I184
tp2042
a(I70
I9
tp2043
a(I70
I10
tp2044
a(I70
I11
tp2045
a(I70
I12
tp2046
a(I70
I13
tp2047
a(I70
I14
tp2048
a(I70
I176
tp2049
a(I70
I177
tp2050
a(I70
I178
tp2051
a(I70
I179
tp2052
a(I70
I180
tp2053
a(I70
I181
tp2054
a(I70
I182
tp2055
a(I70
I183
tp2056
a(I70
I184
tp2057
a(I71
I9
tp2058
a(I71
I10
tp2059
a(I71
I11
tp2060
a(I71
I12
tp2061
a(I71
I13
tp2062
a(I71
I14
tp2063
a(I71
I176
tp2064
a(I71
I177
tp2065
a(I71
I178
tp2066
a(I71
I179
tp2067
a(I71
I180
tp2068
a(I71
I181
tp2069
a(I71
I182
tp2070
a(I71
I183
tp2071
a(I71
I184
tp2072
a(I72
I9
tp2073
a(I72
I10
tp2074
a(I72
I11
tp2075
a(I72
I12
tp2076
a(I72
I13
tp2077
a(I72
I14
tp2078
a(I72
I176
tp2079
a(I72
I177
tp2080
a(I72
I178
tp2081
a(I72
I179
tp2082
a(I72
I180
tp2083
a(I72
I181
tp2084
a(I72
I182
tp2085
a(I72
I183
tp2086
a(I72
I184
tp2087
a(I73
I9
tp2088
a(I73
I10
tp2089
a(I73
I11
tp2090
a(I73
I12
tp2091
a(I73
I13
tp2092
a(I73
I14
tp2093
a(I73
I176
tp2094
a(I73
I177
tp2095
a(I73
I178
tp2096
a(I73
I179
tp2097
a(I73
I180
tp2098
a(I73
I181
tp2099
a(I73
I182
tp2100
a(I73
I183
tp2101
a(I73
I184
tp2102
a(I74
I9
tp2103
a(I74
I10
tp2104
a(I74
I11
tp2105
a(I74
I12
tp2106
a(I74
I13
tp2107
a(I74
I14
tp2108
a(I74
I176
tp2109
a(I74
I177
tp2110
a(I74
I178
tp2111
a(I74
I179
tp2112
a(I74
I180
tp2113
a(I74
I181
tp2114
a(I74
I182
tp2115
a(I74
I183
tp2116
a(I74
I184
tp2117
a(I75
I9
tp2118
a(I75
I10
tp2119
a(I75
I11
tp2120
a(I75
I12
tp2121
a(I75
I13
tp2122
a(I75
I14
tp2123
a(I75
I176
tp2124
a(I75
I177
tp2125
a(I75
I178
tp2126
a(I75
I179
tp2127
a(I75
I180
tp2128
a(I75
I181
tp2129
a(I75
I182
tp2130
a(I75
I183
tp2131
a(I75
I184
tp2132
a(I76
I9
tp2133
a(I76
I10
tp2134
a(I76
I11
tp2135
a(I76
I12
tp2136
a(I76
I13
tp2137
a(I76
I14
tp2138
a(I76
I176
tp2139
a(I76
I177
tp2140
a(I76
I178
tp2141
a(I76
I179
tp2142
a(I76
I180
tp2143
a(I76
I181
tp2144
a(I76
I182
tp2145
a(I76
I183
tp2146
a(I76
I184
tp2147
a(I77
I9
tp2148
a(I77
I10
tp2149
a(I77
I11
tp2150
a(I77
I12
tp2151
a(I77
I13
tp2152
a(I77
I14
tp2153
a(I77
I176
tp2154
a(I77
I177
tp2155
a(I77
I178
tp2156
a(I77
I179
tp2157
a(I77
I180
tp2158
a(I77
I181
tp2159
a(I77
I182
tp2160
a(I77
I183
tp2161
a(I77
I184
tp2162
a(I78
I9
tp2163
a(I78
I10
tp2164
a(I78
I11
tp2165
a(I78
I12
tp2166
a(I78
I13
tp2167
a(I78
I14
tp2168
a(I78
I176
tp2169
a(I78
I177
tp2170
a(I78
I178
tp2171
a(I78
I179
tp2172
a(I78
I180
tp2173
a(I78
I181
tp2174
a(I78
I182
tp2175
a(I78
I183
tp2176
a(I78
I184
tp2177
a(I79
I9
tp2178
a(I79
I10
tp2179
a(I79
I11
tp2180
a(I79
I12
tp2181
a(I79
I13
tp2182
a(I79
I14
tp2183
a(I79
I176
tp2184
a(I79
I177
tp2185
a(I79
I178
tp2186
a(I79
I179
tp2187
a(I79
I180
tp2188
a(I79
I181
tp2189
a(I79
I182
tp2190
a(I79
I183
tp2191
a(I79
I184
tp2192
a(I80
I9
tp2193
a(I80
I10
tp2194
a(I80
I11
tp2195
a(I80
I12
tp2196
a(I80
I13
tp2197
a(I80
I14
tp2198
a(I80
I176
tp2199
a(I80
I177
tp2200
a(I80
I178
tp2201
a(I80
I179
tp2202
a(I80
I180
tp2203
a(I80
I181
tp2204
a(I80
I182
tp2205
a(I80
I183
tp2206
a(I80
I184
tp2207
a(I81
I9
tp2208
a(I81
I10
tp2209
a(I81
I11
tp2210
a(I81
I12
tp2211
a(I81
I13
tp2212
a(I81
I14
tp2213
a(I81
I176
tp2214
a(I81
I177
tp2215
a(I81
I178
tp2216
a(I81
I179
tp2217
a(I81
I180
tp2218
a(I81
I181
tp2219
a(I81
I182
tp2220
a(I81
I183
tp2221
a(I81
I184
tp2222
a(I82
I9
tp2223
a(I82
I10
tp2224
a(I82
I11
tp2225
a(I82
I12
tp2226
a(I82
I13
tp2227
a(I82
I14
tp2228
a(I82
I176
tp2229
a(I82
I177
tp2230
a(I82
I178
tp2231
a(I82
I179
tp2232
a(I82
I180
tp2233
a(I82
I181
tp2234
a(I82
I182
tp2235
a(I82
I183
tp2236
a(I82
I184
tp2237
a(I83
I9
tp2238
a(I83
I10
tp2239
a(I83
I11
tp2240
a(I83
I12
tp2241
a(I83
I13
tp2242
a(I83
I14
tp2243
a(I83
I176
tp2244
a(I83
I177
tp2245
a(I83
I178
tp2246
a(I83
I179
tp2247
a(I83
I180
tp2248
a(I83
I181
tp2249
a(I83
I182
tp2250
a(I83
I183
tp2251
a(I83
I184
tp2252
a(I84
I9
tp2253
a(I84
I10
tp2254
a(I84
I11
tp2255
a(I84
I12
tp2256
a(I84
I13
tp2257
a(I84
I14
tp2258
a(I84
I176
tp2259
a(I84
I177
tp2260
a(I84
I178
tp2261
a(I84
I179
tp2262
a(I84
I180
tp2263
a(I84
I181
tp2264
a(I84
I182
tp2265
a(I84
I183
tp2266
a(I84
I184
tp2267
a(I85
I9
tp2268
a(I85
I10
tp2269
a(I85
I11
tp2270
a(I85
I12
tp2271
a(I85
I13
tp2272
a(I85
I14
tp2273
a(I85
I176
tp2274
a(I85
I177
tp2275
a(I85
I178
tp2276
a(I85
I179
tp2277
a(I85
I180
tp2278
a(I85
I181
tp2279
a(I85
I182
tp2280
a(I85
I183
tp2281
a(I85
I184
tp2282
a(I86
I9
tp2283
a(I86
I10
tp2284
a(I86
I11
tp2285
a(I86
I12
tp2286
a(I86
I13
tp2287
a(I86
I14
tp2288
a(I86
I176
tp2289
a(I86
I177
tp2290
a(I86
I178
tp2291
a(I86
I179
tp2292
a(I86
I180
tp2293
a(I86
I181
tp2294
a(I86
I182
tp2295
a(I86
I183
tp2296
a(I86
I184
tp2297
a(I87
I9
tp2298
a(I87
I10
tp2299
a(I87
I11
tp2300
a(I87
I12
tp2301
a(I87
I13
tp2302
a(I87
I14
tp2303
a(I87
I176
tp2304
a(I87
I177
tp2305
a(I87
I178
tp2306
a(I87
I179
tp2307
a(I87
I180
tp2308
a(I87
I181
tp2309
a(I87
I182
tp2310
a(I87
I183
tp2311
a(I87
I184
tp2312
a(I88
I9
tp2313
a(I88
I10
tp2314
a(I88
I11
tp2315
a(I88
I12
tp2316
a(I88
I13
tp2317
a(I88
I14
tp2318
a(I88
I176
tp2319
a(I88
I177
tp2320
a(I88
I178
tp2321
a(I88
I179
tp2322
a(I88
I180
tp2323
a(I88
I181
tp2324
a(I88
I182
tp2325
a(I88
I183
tp2326
a(I88
I184
tp2327
a(I89
I9
tp2328
a(I89
I10
tp2329
a(I89
I11
tp2330
a(I89
I12
tp2331
a(I89
I13
tp2332
a(I89
I14
tp2333
a(I89
I15
tp2334
a(I89
I16
tp2335
a(I89
I17
tp2336
a(I89
I18
tp2337
a(I89
I19
tp2338
a(I89
I20
tp2339
a(I89
I21
tp2340
a(I89
I22
tp2341
a(I89
I23
tp2342
a(I89
I24
tp2343
a(I89
I25
tp2344
a(I89
I26
tp2345
a(I89
I27
tp2346
a(I89
I28
tp2347
a(I89
I29
tp2348
a(I89
I30
tp2349
a(I89
I31
tp2350
a(I89
I32
tp2351
a(I89
I33
tp2352
a(I89
I34
tp2353
a(I89
I35
tp2354
a(I89
I36
tp2355
a(I89
I37
tp2356
a(I89
I38
tp2357
a(I89
I39
tp2358
a(I89
I40
tp2359
a(I89
I41
tp2360
a(I89
I42
tp2361
a(I89
I43
tp2362
a(I89
I44
tp2363
a(I89
I45
tp2364
a(I89
I46
tp2365
a(I89
I47
tp2366
a(I89
I48
tp2367
a(I89
I49
tp2368
a(I89
I50
tp2369
a(I89
I51
tp2370
a(I89
I52
tp2371
a(I89
I53
tp2372
a(I89
I54
tp2373
a(I89
I55
tp2374
a(I89
I56
tp2375
a(I89
I57
tp2376
a(I89
I58
tp2377
a(I89
I59
tp2378
a(I89
I60
tp2379
a(I89
I61
tp2380
a(I89
I62
tp2381
a(I89
I63
tp2382
a(I89
I64
tp2383
a(I89
I65
tp2384
a(I89
I66
tp2385
a(I89
I67
tp2386
a(I89
I68
tp2387
a(I89
I69
tp2388
a(I89
I70
tp2389
a(I89
I71
tp2390
a(I89
I72
tp2391
a(I89
I73
tp2392
a(I89
I74
tp2393
a(I89
I75
tp2394
a(I89
I76
tp2395
a(I89
I77
tp2396
a(I89
I78
tp2397
a(I89
I79
tp2398
a(I89
I80
tp2399
a(I89
I81
tp2400
a(I89
I82
tp2401
a(I89
I83
tp2402
a(I89
I84
tp2403
a(I89
I85
tp2404
a(I89
I86
tp2405
a(I89
I87
tp2406
a(I89
I88
tp2407
a(I89
I89
tp2408
a(I89
I90
tp2409
a(I89
I91
tp2410
a(I89
I92
tp2411
a(I89
I93
tp2412
a(I89
I94
tp2413
a(I89
I95
tp2414
a(I89
I96
tp2415
a(I89
I97
tp2416
a(I89
I98
tp2417
a(I89
I99
tp2418
a(I89
I100
tp2419
a(I89
I101
tp2420
a(I89
I102
tp2421
a(I89
I103
tp2422
a(I89
I104
tp2423
a(I89
I105
tp2424
a(I89
I106
tp2425
a(I89
I107
tp2426
a(I89
I108
tp2427
a(I89
I109
tp2428
a(I89
I110
tp2429
a(I89
I111
tp2430
a(I89
I112
tp2431
a(I89
I113
tp2432
a(I89
I114
tp2433
a(I89
I115
tp2434
a(I89
I116
tp2435
a(I89
I117
tp2436
a(I89
I118
tp2437
a(I89
I119
tp2438
a(I89
I120
tp2439
a(I89
I121
tp2440
a(I89
I122
tp2441
a(I89
I123
tp2442
a(I89
I124
tp2443
a(I89
I125
tp2444
a(I89
I126
tp2445
a(I89
I127
tp2446
a(I89
I128
tp2447
a(I89
I129
tp2448
a(I89
I130
tp2449
a(I89
I131
tp2450
a(I89
I132
tp2451
a(I89
I133
tp2452
a(I89
I134
tp2453
a(I89
I135
tp2454
a(I89
I136
tp2455
a(I89
I137
tp2456
a(I89
I138
tp2457
a(I89
I139
tp2458
a(I89
I140
tp2459
a(I89
I141
tp2460
a(I89
I142
tp2461
a(I89
I143
tp2462
a(I89
I144
tp2463
a(I89
I145
tp2464
a(I89
I146
tp2465
a(I89
I147
tp2466
a(I89
I148
tp2467
a(I89
I149
tp2468
a(I89
I150
tp2469
a(I89
I151
tp2470
a(I89
I152
tp2471
a(I89
I153
tp2472
a(I89
I154
tp2473
a(I89
I155
tp2474
a(I89
I156
tp2475
a(I89
I157
tp2476
a(I89
I158
tp2477
a(I89
I159
tp2478
a(I89
I160
tp2479
a(I89
I161
tp2480
a(I89
I162
tp2481
a(I89
I163
tp2482
a(I89
I164
tp2483
a(I89
I165
tp2484
a(I89
I166
tp2485
a(I89
I167
tp2486
a(I89
I168
tp2487
a(I89
I169
tp2488
a(I89
I170
tp2489
a(I89
I171
tp2490
a(I89
I172
tp2491
a(I89
I173
tp2492
a(I89
I174
tp2493
a(I89
I175
tp2494
a(I89
I176
tp2495
a(I89
I177
tp2496
a(I89
I178
tp2497
a(I89
I179
tp2498
a(I89
I180
tp2499
a(I89
I181
tp2500
a(I89
I182
tp2501
a(I89
I183
tp2502
a(I89
I184
tp2503
a(I90
I9
tp2504
a(I90
I10
tp2505
a(I90
I11
tp2506
a(I90
I12
tp2507
a(I90
I13
tp2508
a(I90
I14
tp2509
a(I90
I15
tp2510
a(I90
I16
tp2511
a(I90
I17
tp2512
a(I90
I18
tp2513
a(I90
I19
tp2514
a(I90
I20
tp2515
a(I90
I21
tp2516
a(I90
I22
tp2517
a(I90
I23
tp2518
a(I90
I24
tp2519
a(I90
I25
tp2520
a(I90
I26
tp2521
a(I90
I27
tp2522
a(I90
I28
tp2523
a(I90
I29
tp2524
a(I90
I30
tp2525
a(I90
I31
tp2526
a(I90
I32
tp2527
a(I90
I33
tp2528
a(I90
I34
tp2529
a(I90
I35
tp2530
a(I90
I36
tp2531
a(I90
I37
tp2532
a(I90
I38
tp2533
a(I90
I39
tp2534
a(I90
I40
tp2535
a(I90
I41
tp2536
a(I90
I42
tp2537
a(I90
I43
tp2538
a(I90
I44
tp2539
a(I90
I45
tp2540
a(I90
I46
tp2541
a(I90
I47
tp2542
a(I90
I48
tp2543
a(I90
I49
tp2544
a(I90
I50
tp2545
a(I90
I51
tp2546
a(I90
I52
tp2547
a(I90
I53
tp2548
a(I90
I54
tp2549
a(I90
I55
tp2550
a(I90
I56
tp2551
a(I90
I57
tp2552
a(I90
I58
tp2553
a(I90
I59
tp2554
a(I90
I60
tp2555
a(I90
I61
tp2556
a(I90
I62
tp2557
a(I90
I63
tp2558
a(I90
I64
tp2559
a(I90
I65
tp2560
a(I90
I66
tp2561
a(I90
I67
tp2562
a(I90
I68
tp2563
a(I90
I69
tp2564
a(I90
I70
tp2565
a(I90
I71
tp2566
a(I90
I72
tp2567
a(I90
I73
tp2568
a(I90
I74
tp2569
a(I90
I75
tp2570
a(I90
I76
tp2571
a(I90
I77
tp2572
a(I90
I78
tp2573
a(I90
I79
tp2574
a(I90
I80
tp2575
a(I90
I81
tp2576
a(I90
I82
tp2577
a(I90
I83
tp2578
a(I90
I84
tp2579
a(I90
I85
tp2580
a(I90
I86
tp2581
a(I90
I87
tp2582
a(I90
I88
tp2583
a(I90
I89
tp2584
a(I90
I90
tp2585
a(I90
I91
tp2586
a(I90
I92
tp2587
a(I90
I93
tp2588
a(I90
I94
tp2589
a(I90
I95
tp2590
a(I90
I96
tp2591
a(I90
I97
tp2592
a(I90
I98
tp2593
a(I90
I99
tp2594
a(I90
I100
tp2595
a(I90
I101
tp2596
a(I90
I102
tp2597
a(I90
I103
tp2598
a(I90
I104
tp2599
a(I90
I105
tp2600
a(I90
I106
tp2601
a(I90
I107
tp2602
a(I90
I108
tp2603
a(I90
I109
tp2604
a(I90
I110
tp2605
a(I90
I111
tp2606
a(I90
I112
tp2607
a(I90
I113
tp2608
a(I90
I114
tp2609
a(I90
I115
tp2610
a(I90
I116
tp2611
a(I90
I117
tp2612
a(I90
I118
tp2613
a(I90
I119
tp2614
a(I90
I120
tp2615
a(I90
I121
tp2616
a(I90
I122
tp2617
a(I90
I123
tp2618
a(I90
I124
tp2619
a(I90
I125
tp2620
a(I90
I126
tp2621
a(I90
I127
tp2622
a(I90
I128
tp2623
a(I90
I129
tp2624
a(I90
I130
tp2625
a(I90
I131
tp2626
a(I90
I132
tp2627
a(I90
I133
tp2628
a(I90
I134
tp2629
a(I90
I135
tp2630
a(I90
I136
tp2631
a(I90
I137
tp2632
a(I90
I138
tp2633
a(I90
I139
tp2634
a(I90
I140
tp2635
a(I90
I141
tp2636
a(I90
I142
tp2637
a(I90
I143
tp2638
a(I90
I144
tp2639
a(I90
I145
tp2640
a(I90
I146
tp2641
a(I90
I147
tp2642
a(I90
I148
tp2643
a(I90
I149
tp2644
a(I90
I150
tp2645
a(I90
I151
tp2646
a(I90
I152
tp2647
a(I90
I153
tp2648
a(I90
I154
tp2649
a(I90
I155
tp2650
a(I90
I156
tp2651
a(I90
I157
tp2652
a(I90
I158
tp2653
a(I90
I159
tp2654
a(I90
I160
tp2655
a(I90
I161
tp2656
a(I90
I162
tp2657
a(I90
I163
tp2658
a(I90
I164
tp2659
a(I90
I165
tp2660
a(I90
I166
tp2661
a(I90
I167
tp2662
a(I90
I168
tp2663
a(I90
I169
tp2664
a(I90
I170
tp2665
a(I90
I171
tp2666
a(I90
I172
tp2667
a(I90
I173
tp2668
a(I90
I174
tp2669
a(I90
I175
tp2670
a(I90
I176
tp2671
a(I90
I177
tp2672
a(I90
I178
tp2673
a(I90
I179
tp2674
a(I90
I180
tp2675
a(I90
I181
tp2676
a(I90
I182
tp2677
a(I90
I183
tp2678
a(I90
I184
tp2679
a(I91
I9
tp2680
a(I91
I10
tp2681
a(I91
I11
tp2682
a(I91
I12
tp2683
a(I91
I13
tp2684
a(I91
I14
tp2685
a(I91
I15
tp2686
a(I91
I16
tp2687
a(I91
I17
tp2688
a(I91
I18
tp2689
a(I91
I19
tp2690
a(I91
I20
tp2691
a(I91
I21
tp2692
a(I91
I22
tp2693
a(I91
I23
tp2694
a(I91
I24
tp2695
a(I91
I25
tp2696
a(I91
I26
tp2697
a(I91
I27
tp2698
a(I91
I28
tp2699
a(I91
I29
tp2700
a(I91
I30
tp2701
a(I91
I31
tp2702
a(I91
I32
tp2703
a(I91
I33
tp2704
a(I91
I34
tp2705
a(I91
I35
tp2706
a(I91
I36
tp2707
a(I91
I37
tp2708
a(I91
I38
tp2709
a(I91
I39
tp2710
a(I91
I40
tp2711
a(I91
I41
tp2712
a(I91
I42
tp2713
a(I91
I43
tp2714
a(I91
I44
tp2715
a(I91
I45
tp2716
a(I91
I46
tp2717
a(I91
I47
tp2718
a(I91
I48
tp2719
a(I91
I49
tp2720
a(I91
I50
tp2721
a(I91
I51
tp2722
a(I91
I52
tp2723
a(I91
I53
tp2724
a(I91
I54
tp2725
a(I91
I55
tp2726
a(I91
I56
tp2727
a(I91
I57
tp2728
a(I91
I58
tp2729
a(I91
I59
tp2730
a(I91
I60
tp2731
a(I91
I61
tp2732
a(I91
I62
tp2733
a(I91
I63
tp2734
a(I91
I64
tp2735
a(I91
I65
tp2736
a(I91
I66
tp2737
a(I91
I67
tp2738
a(I91
I68
tp2739
a(I91
I69
tp2740
a(I91
I70
tp2741
a(I91
I71
tp2742
a(I91
I72
tp2743
a(I91
I73
tp2744
a(I91
I74
tp2745
a(I91
I75
tp2746
a(I91
I76
tp2747
a(I91
I77
tp2748
a(I91
I78
tp2749
a(I91
I79
tp2750
a(I91
I80
tp2751
a(I91
I81
tp2752
a(I91
I82
tp2753
a(I91
I83
tp2754
a(I91
I84
tp2755
a(I91
I85
tp2756
a(I91
I86
tp2757
a(I91
I87
tp2758
a(I91
I88
tp2759
a(I91
I89
tp2760
a(I91
I90
tp2761
a(I91
I91
tp2762
a(I91
I92
tp2763
a(I91
I93
tp2764
a(I91
I94
tp2765
a(I91
I95
tp2766
a(I91
I96
tp2767
a(I91
I97
tp2768
a(I91
I98
tp2769
a(I91
I99
tp2770
a(I91
I100
tp2771
a(I91
I101
tp2772
a(I91
I102
tp2773
a(I91
I103
tp2774
a(I91
I104
tp2775
a(I91
I105
tp2776
a(I91
I106
tp2777
a(I91
I107
tp2778
a(I91
I108
tp2779
a(I91
I109
tp2780
a(I91
I110
tp2781
a(I91
I111
tp2782
a(I91
I112
tp2783
a(I91
I113
tp2784
a(I91
I114
tp2785
a(I91
I115
tp2786
a(I91
I116
tp2787
a(I91
I117
tp2788
a(I91
I118
tp2789
a(I91
I119
tp2790
a(I91
I120
tp2791
a(I91
I121
tp2792
a(I91
I122
tp2793
a(I91
I123
tp2794
a(I91
I124
tp2795
a(I91
I125
tp2796
a(I91
I126
tp2797
a(I91
I127
tp2798
a(I91
I128
tp2799
a(I91
I129
tp2800
a(I91
I130
tp2801
a(I91
I131
tp2802
a(I91
I132
tp2803
a(I91
I133
tp2804
a(I91
I134
tp2805
a(I91
I135
tp2806
a(I91
I136
tp2807
a(I91
I137
tp2808
a(I91
I138
tp2809
a(I91
I139
tp2810
a(I91
I140
tp2811
a(I91
I141
tp2812
a(I91
I142
tp2813
a(I91
I143
tp2814
a(I91
I144
tp2815
a(I91
I145
tp2816
a(I91
I146
tp2817
a(I91
I147
tp2818
a(I91
I148
tp2819
a(I91
I149
tp2820
a(I91
I150
tp2821
a(I91
I151
tp2822
a(I91
I152
tp2823
a(I91
I153
tp2824
a(I91
I154
tp2825
a(I91
I155
tp2826
a(I91
I156
tp2827
a(I91
I157
tp2828
a(I91
I158
tp2829
a(I91
I159
tp2830
a(I91
I160
tp2831
a(I91
I161
tp2832
a(I91
I162
tp2833
a(I91
I163
tp2834
a(I91
I164
tp2835
a(I91
I165
tp2836
a(I91
I166
tp2837
a(I91
I167
tp2838
a(I91
I168
tp2839
a(I91
I169
tp2840
a(I91
I170
tp2841
a(I91
I171
tp2842
a(I91
I172
tp2843
a(I91
I173
tp2844
a(I91
I174
tp2845
a(I91
I175
tp2846
a(I91
I176
tp2847
a(I91
I177
tp2848
a(I91
I178
tp2849
a(I91
I179
tp2850
a(I91
I180
tp2851
a(I91
I181
tp2852
a(I91
I182
tp2853
a(I91
I183
tp2854
a(I91
I184
tp2855
a(I92
I9
tp2856
a(I92
I10
tp2857
a(I92
I11
tp2858
a(I92
I12
tp2859
a(I92
I13
tp2860
a(I92
I14
tp2861
a(I92
I15
tp2862
a(I92
I16
tp2863
a(I92
I17
tp2864
a(I92
I18
tp2865
a(I92
I19
tp2866
a(I92
I20
tp2867
a(I92
I21
tp2868
a(I92
I22
tp2869
a(I92
I23
tp2870
a(I92
I24
tp2871
a(I92
I25
tp2872
a(I92
I26
tp2873
a(I92
I27
tp2874
a(I92
I28
tp2875
a(I92
I29
tp2876
a(I92
I30
tp2877
a(I92
I31
tp2878
a(I92
I32
tp2879
a(I92
I33
tp2880
a(I92
I34
tp2881
a(I92
I35
tp2882
a(I92
I36
tp2883
a(I92
I37
tp2884
a(I92
I38
tp2885
a(I92
I39
tp2886
a(I92
I40
tp2887
a(I92
I41
tp2888
a(I92
I42
tp2889
a(I92
I43
tp2890
a(I92
I44
tp2891
a(I92
I45
tp2892
a(I92
I46
tp2893
a(I92
I47
tp2894
a(I92
I48
tp2895
a(I92
I49
tp2896
a(I92
I50
tp2897
a(I92
I51
tp2898
a(I92
I52
tp2899
a(I92
I53
tp2900
a(I92
I54
tp2901
a(I92
I55
tp2902
a(I92
I56
tp2903
a(I92
I57
tp2904
a(I92
I58
tp2905
a(I92
I59
tp2906
a(I92
I60
tp2907
a(I92
I61
tp2908
a(I92
I62
tp2909
a(I92
I63
tp2910
a(I92
I64
tp2911
a(I92
I65
tp2912
a(I92
I66
tp2913
a(I92
I67
tp2914
a(I92
I68
tp2915
a(I92
I69
tp2916
a(I92
I70
tp2917
a(I92
I71
tp2918
a(I92
I72
tp2919
a(I92
I73
tp2920
a(I92
I74
tp2921
a(I92
I75
tp2922
a(I92
I76
tp2923
a(I92
I77
tp2924
a(I92
I78
tp2925
a(I92
I79
tp2926
a(I92
I80
tp2927
a(I92
I81
tp2928
a(I92
I82
tp2929
a(I92
I83
tp2930
a(I92
I84
tp2931
a(I92
I85
tp2932
a(I92
I86
tp2933
a(I92
I87
tp2934
a(I92
I88
tp2935
a(I92
I89
tp2936
a(I92
I90
tp2937
a(I92
I91
tp2938
a(I92
I92
tp2939
a(I92
I93
tp2940
a(I92
I94
tp2941
a(I92
I95
tp2942
a(I92
I96
tp2943
a(I92
I97
tp2944
a(I92
I98
tp2945
a(I92
I99
tp2946
a(I92
I100
tp2947
a(I92
I101
tp2948
a(I92
I102
tp2949
a(I92
I103
tp2950
a(I92
I104
tp2951
a(I92
I105
tp2952
a(I92
I106
tp2953
a(I92
I107
tp2954
a(I92
I108
tp2955
a(I92
I109
tp2956
a(I92
I110
tp2957
a(I92
I111
tp2958
a(I92
I112
tp2959
a(I92
I113
tp2960
a(I92
I114
tp2961
a(I92
I115
tp2962
a(I92
I116
tp2963
a(I92
I117
tp2964
a(I92
I118
tp2965
a(I92
I119
tp2966
a(I92
I120
tp2967
a(I92
I121
tp2968
a(I92
I122
tp2969
a(I92
I123
tp2970
a(I92
I124
tp2971
a(I92
I125
tp2972
a(I92
I126
tp2973
a(I92
I127
tp2974
a(I92
I128
tp2975
a(I92
I129
tp2976
a(I92
I130
tp2977
a(I92
I131
tp2978
a(I92
I132
tp2979
a(I92
I133
tp2980
a(I92
I134
tp2981
a(I92
I135
tp2982
a(I92
I136
tp2983
a(I92
I137
tp2984
a(I92
I138
tp2985
a(I92
I139
tp2986
a(I92
I140
tp2987
a(I92
I141
tp2988
a(I92
I142
tp2989
a(I92
I143
tp2990
a(I92
I144
tp2991
a(I92
I145
tp2992
a(I92
I146
tp2993
a(I92
I147
tp2994
a(I92
I148
tp2995
a(I92
I149
tp2996
a(I92
I150
tp2997
a(I92
I151
tp2998
a(I92
I152
tp2999
a(I92
I153
tp3000
a(I92
I154
tp3001
a(I92
I155
tp3002
a(I92
I156
tp3003
a(I92
I157
tp3004
a(I92
I158
tp3005
a(I92
I159
tp3006
a(I92
I160
tp3007
a(I92
I161
tp3008
a(I92
I162
tp3009
a(I92
I163
tp3010
a(I92
I164
tp3011
a(I92
I165
tp3012
a(I92
I166
tp3013
a(I92
I167
tp3014
a(I92
I168
tp3015
a(I92
I169
tp3016
a(I92
I170
tp3017
a(I92
I171
tp3018
a(I92
I172
tp3019
a(I92
I173
tp3020
a(I92
I174
tp3021
a(I92
I175
tp3022
a(I92
I176
tp3023
a(I92
I177
tp3024
a(I92
I178
tp3025
a(I92
I179
tp3026
a(I92
I180
tp3027
a(I92
I181
tp3028
a(I92
I182
tp3029
a(I92
I183
tp3030
a(I92
I184
tp3031
a(I93
I9
tp3032
a(I93
I10
tp3033
a(I93
I11
tp3034
a(I93
I12
tp3035
a(I93
I13
tp3036
a(I93
I14
tp3037
a(I93
I15
tp3038
a(I93
I16
tp3039
a(I93
I17
tp3040
a(I93
I18
tp3041
a(I93
I19
tp3042
a(I93
I20
tp3043
a(I93
I21
tp3044
a(I93
I22
tp3045
a(I93
I23
tp3046
a(I93
I24
tp3047
a(I93
I25
tp3048
a(I93
I26
tp3049
a(I93
I27
tp3050
a(I93
I28
tp3051
a(I93
I29
tp3052
a(I93
I30
tp3053
a(I93
I31
tp3054
a(I93
I32
tp3055
a(I93
I33
tp3056
a(I93
I34
tp3057
a(I93
I35
tp3058
a(I93
I36
tp3059
a(I93
I37
tp3060
a(I93
I38
tp3061
a(I93
I39
tp3062
a(I93
I40
tp3063
a(I93
I41
tp3064
a(I93
I42
tp3065
a(I93
I43
tp3066
a(I93
I44
tp3067
a(I93
I45
tp3068
a(I93
I46
tp3069
a(I93
I47
tp3070
a(I93
I48
tp3071
a(I93
I49
tp3072
a(I93
I50
tp3073
a(I93
I51
tp3074
a(I93
I52
tp3075
a(I93
I53
tp3076
a(I93
I54
tp3077
a(I93
I55
tp3078
a(I93
I56
tp3079
a(I93
I57
tp3080
a(I93
I58
tp3081
a(I93
I59
tp3082
a(I93
I60
tp3083
a(I93
I61
tp3084
a(I93
I62
tp3085
a(I93
I63
tp3086
a(I93
I64
tp3087
a(I93
I65
tp3088
a(I93
I66
tp3089
a(I93
I67
tp3090
a(I93
I68
tp3091
a(I93
I69
tp3092
a(I93
I70
tp3093
a(I93
I71
tp3094
a(I93
I72
tp3095
a(I93
I73
tp3096
a(I93
I74
tp3097
a(I93
I75
tp3098
a(I93
I76
tp3099
a(I93
I77
tp3100
a(I93
I78
tp3101
a(I93
I79
tp3102
a(I93
I80
tp3103
a(I93
I81
tp3104
a(I93
I82
tp3105
a(I93
I83
tp3106
a(I93
I84
tp3107
a(I93
I85
tp3108
a(I93
I86
tp3109
a(I93
I87
tp3110
a(I93
I88
tp3111
a(I93
I89
tp3112
a(I93
I90
tp3113
a(I93
I91
tp3114
a(I93
I92
tp3115
a(I93
I93
tp3116
a(I93
I94
tp3117
a(I93
I95
tp3118
a(I93
I96
tp3119
a(I93
I97
tp3120
a(I93
I98
tp3121
a(I93
I99
tp3122
a(I93
I100
tp3123
a(I93
I101
tp3124
a(I93
I102
tp3125
a(I93
I103
tp3126
a(I93
I104
tp3127
a(I93
I105
tp3128
a(I93
I106
tp3129
a(I93
I107
tp3130
a(I93
I108
tp3131
a(I93
I109
tp3132
a(I93
I110
tp3133
a(I93
I111
tp3134
a(I93
I112
tp3135
a(I93
I113
tp3136
a(I93
I114
tp3137
a(I93
I115
tp3138
a(I93
I116
tp3139
a(I93
I117
tp3140
a(I93
I118
tp3141
a(I93
I119
tp3142
a(I93
I120
tp3143
a(I93
I121
tp3144
a(I93
I122
tp3145
a(I93
I123
tp3146
a(I93
I124
tp3147
a(I93
I125
tp3148
a(I93
I126
tp3149
a(I93
I127
tp3150
a(I93
I128
tp3151
a(I93
I129
tp3152
a(I93
I130
tp3153
a(I93
I131
tp3154
a(I93
I132
tp3155
a(I93
I133
tp3156
a(I93
I134
tp3157
a(I93
I135
tp3158
a(I93
I136
tp3159
a(I93
I137
tp3160
a(I93
I138
tp3161
a(I93
I139
tp3162
a(I93
I140
tp3163
a(I93
I141
tp3164
a(I93
I142
tp3165
a(I93
I143
tp3166
a(I93
I144
tp3167
a(I93
I145
tp3168
a(I93
I146
tp3169
a(I93
I147
tp3170
a(I93
I148
tp3171
a(I93
I149
tp3172
a(I93
I150
tp3173
a(I93
I151
tp3174
a(I93
I152
tp3175
a(I93
I153
tp3176
a(I93
I154
tp3177
a(I93
I155
tp3178
a(I93
I156
tp3179
a(I93
I157
tp3180
a(I93
I158
tp3181
a(I93
I159
tp3182
a(I93
I160
tp3183
a(I93
I161
tp3184
a(I93
I162
tp3185
a(I93
I163
tp3186
a(I93
I164
tp3187
a(I93
I165
tp3188
a(I93
I166
tp3189
a(I93
I167
tp3190
a(I93
I168
tp3191
a(I93
I169
tp3192
a(I93
I170
tp3193
a(I93
I171
tp3194
a(I93
I172
tp3195
a(I93
I173
tp3196
a(I93
I174
tp3197
a(I93
I175
tp3198
a(I93
I176
tp3199
a(I93
I177
tp3200
a(I93
I178
tp3201
a(I93
I179
tp3202
a(I93
I180
tp3203
a(I93
I181
tp3204
a(I93
I182
tp3205
a(I93
I183
tp3206
a(I93
I184
tp3207
a(I94
I9
tp3208
a(I94
I10
tp3209
a(I94
I11
tp3210
a(I94
I12
tp3211
a(I94
I13
tp3212
a(I94
I14
tp3213
a(I94
I15
tp3214
a(I94
I16
tp3215
a(I94
I17
tp3216
a(I94
I18
tp3217
a(I94
I19
tp3218
a(I94
I20
tp3219
a(I94
I21
tp3220
a(I94
I22
tp3221
a(I94
I23
tp3222
a(I94
I24
tp3223
a(I94
I25
tp3224
a(I94
I26
tp3225
a(I94
I27
tp3226
a(I94
I28
tp3227
a(I94
I29
tp3228
a(I94
I30
tp3229
a(I94
I31
tp3230
a(I94
I32
tp3231
a(I94
I33
tp3232
a(I94
I34
tp3233
a(I94
I35
tp3234
a(I94
I36
tp3235
a(I94
I37
tp3236
a(I94
I38
tp3237
a(I94
I39
tp3238
a(I94
I40
tp3239
a(I94
I41
tp3240
a(I94
I42
tp3241
a(I94
I43
tp3242
a(I94
I44
tp3243
a(I94
I45
tp3244
a(I94
I46
tp3245
a(I94
I47
tp3246
a(I94
I48
tp3247
a(I94
I49
tp3248
a(I94
I50
tp3249
a(I94
I51
tp3250
a(I94
I52
tp3251
a(I94
I53
tp3252
a(I94
I54
tp3253
a(I94
I55
tp3254
a(I94
I56
tp3255
a(I94
I57
tp3256
a(I94
I58
tp3257
a(I94
I59
tp3258
a(I94
I60
tp3259
a(I94
I61
tp3260
a(I94
I62
tp3261
a(I94
I63
tp3262
a(I94
I64
tp3263
a(I94
I65
tp3264
a(I94
I66
tp3265
a(I94
I67
tp3266
a(I94
I68
tp3267
a(I94
I69
tp3268
a(I94
I70
tp3269
a(I94
I71
tp3270
a(I94
I72
tp3271
a(I94
I73
tp3272
a(I94
I74
tp3273
a(I94
I75
tp3274
a(I94
I76
tp3275
a(I94
I77
tp3276
a(I94
I78
tp3277
a(I94
I79
tp3278
a(I94
I80
tp3279
a(I94
I81
tp3280
a(I94
I82
tp3281
a(I94
I83
tp3282
a(I94
I84
tp3283
a(I94
I85
tp3284
a(I94
I86
tp3285
a(I94
I87
tp3286
a(I94
I88
tp3287
a(I94
I89
tp3288
a(I94
I90
tp3289
a(I94
I91
tp3290
a(I94
I92
tp3291
a(I94
I93
tp3292
a(I94
I94
tp3293
a(I94
I95
tp3294
a(I94
I96
tp3295
a(I94
I97
tp3296
a(I94
I98
tp3297
a(I94
I99
tp3298
a(I94
I100
tp3299
a(I94
I101
tp3300
a(I94
I102
tp3301
a(I94
I103
tp3302
a(I94
I104
tp3303
a(I94
I105
tp3304
a(I94
I106
tp3305
a(I94
I107
tp3306
a(I94
I108
tp3307
a(I94
I109
tp3308
a(I94
I110
tp3309
a(I94
I111
tp3310
a(I94
I112
tp3311
a(I94
I113
tp3312
a(I94
I114
tp3313
a(I94
I115
tp3314
a(I94
I116
tp3315
a(I94
I117
tp3316
a(I94
I118
tp3317
a(I94
I119
tp3318
a(I94
I120
tp3319
a(I94
I121
tp3320
a(I94
I122
tp3321
a(I94
I123
tp3322
a(I94
I124
tp3323
a(I94
I125
tp3324
a(I94
I126
tp3325
a(I94
I127
tp3326
a(I94
I128
tp3327
a(I94
I129
tp3328
a(I94
I130
tp3329
a(I94
I131
tp3330
a(I94
I132
tp3331
a(I94
I133
tp3332
a(I94
I134
tp3333
a(I94
I135
tp3334
a(I94
I136
tp3335
a(I94
I137
tp3336
a(I94
I138
tp3337
a(I94
I139
tp3338
a(I94
I140
tp3339
a(I94
I141
tp3340
a(I94
I142
tp3341
a(I94
I143
tp3342
a(I94
I144
tp3343
a(I94
I145
tp3344
a(I94
I146
tp3345
a(I94
I147
tp3346
a(I94
I148
tp3347
a(I94
I149
tp3348
a(I94
I150
tp3349
a(I94
I151
tp3350
a(I94
I152
tp3351
a(I94
I153
tp3352
a(I94
I154
tp3353
a(I94
I155
tp3354
a(I94
I156
tp3355
a(I94
I157
tp3356
a(I94
I158
tp3357
a(I94
I159
tp3358
a(I94
I160
tp3359
a(I94
I161
tp3360
a(I94
I162
tp3361
a(I94
I163
tp3362
a(I94
I164
tp3363
a(I94
I165
tp3364
a(I94
I166
tp3365
a(I94
I167
tp3366
a(I94
I168
tp3367
a(I94
I169
tp3368
a(I94
I170
tp3369
a(I94
I171
tp3370
a(I94
I172
tp3371
a(I94
I173
tp3372
a(I94
I174
tp3373
a(I94
I175
tp3374
a(I94
I176
tp3375
a(I94
I177
tp3376
a(I94
I178
tp3377
a(I94
I179
tp3378
a(I94
I180
tp3379
a(I94
I181
tp3380
a(I94
I182
tp3381
a(I94
I183
tp3382
a(I94
I184
tp3383
a(I95
I9
tp3384
a(I95
I10
tp3385
a(I95
I11
tp3386
a(I95
I12
tp3387
a(I95
I13
tp3388
a(I95
I14
tp3389
a(I95
I15
tp3390
a(I95
I16
tp3391
a(I95
I17
tp3392
a(I95
I18
tp3393
a(I95
I19
tp3394
a(I95
I20
tp3395
a(I95
I21
tp3396
a(I95
I22
tp3397
a(I95
I23
tp3398
a(I95
I24
tp3399
a(I95
I25
tp3400
a(I95
I26
tp3401
a(I95
I27
tp3402
a(I95
I28
tp3403
a(I95
I29
tp3404
a(I95
I30
tp3405
a(I95
I31
tp3406
a(I95
I32
tp3407
a(I95
I33
tp3408
a(I95
I34
tp3409
a(I95
I35
tp3410
a(I95
I36
tp3411
a(I95
I37
tp3412
a(I95
I38
tp3413
a(I95
I39
tp3414
a(I95
I40
tp3415
a(I95
I41
tp3416
a(I95
I42
tp3417
a(I95
I43
tp3418
a(I95
I44
tp3419
a(I95
I45
tp3420
a(I95
I46
tp3421
a(I95
I47
tp3422
a(I95
I48
tp3423
a(I95
I49
tp3424
a(I95
I50
tp3425
a(I95
I51
tp3426
a(I95
I52
tp3427
a(I95
I53
tp3428
a(I95
I54
tp3429
a(I95
I55
tp3430
a(I95
I56
tp3431
a(I95
I57
tp3432
a(I95
I58
tp3433
a(I95
I59
tp3434
a(I95
I60
tp3435
a(I95
I61
tp3436
a(I95
I62
tp3437
a(I95
I63
tp3438
a(I95
I64
tp3439
a(I95
I65
tp3440
a(I95
I66
tp3441
a(I95
I67
tp3442
a(I95
I68
tp3443
a(I95
I69
tp3444
a(I95
I70
tp3445
a(I95
I71
tp3446
a(I95
I72
tp3447
a(I95
I73
tp3448
a(I95
I74
tp3449
a(I95
I75
tp3450
a(I95
I76
tp3451
a(I95
I77
tp3452
a(I95
I78
tp3453
a(I95
I79
tp3454
a(I95
I80
tp3455
a(I95
I81
tp3456
a(I95
I82
tp3457
a(I95
I83
tp3458
a(I95
I84
tp3459
a(I95
I85
tp3460
a(I95
I86
tp3461
a(I95
I87
tp3462
a(I95
I88
tp3463
a(I95
I89
tp3464
a(I95
I90
tp3465
a(I95
I91
tp3466
a(I95
I92
tp3467
a(I95
I93
tp3468
a(I95
I94
tp3469
a(I95
I95
tp3470
a(I95
I96
tp3471
a(I95
I97
tp3472
a(I95
I98
tp3473
a(I95
I99
tp3474
a(I95
I100
tp3475
a(I95
I101
tp3476
a(I95
I102
tp3477
a(I95
I103
tp3478
a(I95
I104
tp3479
a(I95
I105
tp3480
a(I95
I106
tp3481
a(I95
I107
tp3482
a(I95
I108
tp3483
a(I95
I109
tp3484
a(I95
I110
tp3485
a(I95
I111
tp3486
a(I95
I112
tp3487
a(I95
I113
tp3488
a(I95
I114
tp3489
a(I95
I115
tp3490
a(I95
I116
tp3491
a(I95
I117
tp3492
a(I95
I118
tp3493
a(I95
I119
tp3494
a(I95
I120
tp3495
a(I95
I121
tp3496
a(I95
I122
tp3497
a(I95
I123
tp3498
a(I95
I124
tp3499
a(I95
I125
tp3500
a(I95
I126
tp3501
a(I95
I127
tp3502
a(I95
I128
tp3503
a(I95
I129
tp3504
a(I95
I130
tp3505
a(I95
I131
tp3506
a(I95
I132
tp3507
a(I95
I133
tp3508
a(I95
I134
tp3509
a(I95
I135
tp3510
a(I95
I136
tp3511
a(I95
I137
tp3512
a(I95
I138
tp3513
a(I95
I139
tp3514
a(I95
I140
tp3515
a(I95
I141
tp3516
a(I95
I142
tp3517
a(I95
I143
tp3518
a(I95
I144
tp3519
a(I95
I145
tp3520
a(I95
I146
tp3521
a(I95
I147
tp3522
a(I95
I148
tp3523
a(I95
I149
tp3524
a(I95
I150
tp3525
a(I95
I151
tp3526
a(I95
I152
tp3527
a(I95
I153
tp3528
a(I95
I154
tp3529
a(I95
I155
tp3530
a(I95
I156
tp3531
a(I95
I157
tp3532
a(I95
I158
tp3533
a(I95
I159
tp3534
a(I95
I160
tp3535
a(I95
I161
tp3536
a(I95
I162
tp3537
a(I95
I163
tp3538
a(I95
I164
tp3539
a(I95
I165
tp3540
a(I95
I166
tp3541
a(I95
I167
tp3542
a(I95
I168
tp3543
a(I95
I169
tp3544
a(I95
I170
tp3545
a(I95
I171
tp3546
a(I95
I172
tp3547
a(I95
I173
tp3548
a(I95
I174
tp3549
a(I95
I175
tp3550
a(I95
I176
tp3551
a(I95
I177
tp3552
a(I95
I178
tp3553
a(I95
I179
tp3554
a(I95
I180
tp3555
a(I95
I181
tp3556
a(I95
I182
tp3557
a(I95
I183
tp3558
a(I95
I184
tp3559
a.