(lp0
(I96
I9
tp1
a(I96
I10
tp2
a(I96
I11
tp3
a(I96
I12
tp4
a(I96
I13
tp5
a(I96
I14
tp6
a(I96
I15
tp7
a(I96
I16
tp8
a(I96
I17
tp9
a(I96
I18
tp10
a(I96
I19
tp11
a(I96
I20
tp12
a(I96
I21
tp13
a(I96
I22
tp14
a(I96
I23
tp15
a(I96
I24
tp16
a(I96
I25
tp17
a(I96
I26
tp18
a(I96
I27
tp19
a(I96
I28
tp20
a(I96
I29
tp21
a(I96
I30
tp22
a(I96
I31
tp23
a(I96
I32
tp24
a(I96
I33
tp25
a(I96
I34
tp26
a(I96
I35
tp27
a(I96
I36
tp28
a(I96
I37
tp29
a(I96
I38
tp30
a(I96
I39
tp31
a(I96
I40
tp32
a(I96
I41
tp33
a(I96
I42
tp34
a(I96
I43
tp35
a(I96
I44
tp36
a(I96
I45
tp37
a(I96
I46
tp38
a(I96
I47
tp39
a(I96
I48
tp40
a(I96
I49
tp41
a(I96
I50
tp42
a(I96
I51
tp43
a(I96
I52
tp44
a(I96
I53
tp45
a(I96
I54
tp46
a(I96
I55
tp47
a(I96
I56
tp48
a(I96
I57
tp49
a(I96
I58
tp50
a(I96
I59
tp51
a(I96
I60
tp52
a(I96
I61
tp53
a(I96
I62
tp54
a(I96
I63
tp55
a(I96
I64
tp56
a(I96
I65
tp57
a(I96
I66
tp58
a(I96
I67
tp59
a(I96
I68
tp60
a(I96
I69
tp61
a(I96
I70
tp62
a(I96
I71
tp63
a(I96
I72
tp64
a(I96
I73
tp65
a(I96
I74
tp66
a(I96
I75
tp67
a(I96
I76
tp68
a(I96
I77
tp69
a(I96
I78
tp70
a(I96
I79
tp71
a(I96
I80
tp72
a(I96
I81
tp73
a(I96
I82
tp74
a(I96
I83
tp75
a(I96
I84
tp76
a(I96
I85
tp77
a(I96
I86
tp78
a(I96
I87
tp79
a(I96
I88
tp80
a(I96
I89
tp81
a(I96
I90
tp82
a(I96
I91
tp83
a(I96
I92
tp84
a(I96
I93
tp85
a(I96
I94
tp86
a(I96
I95
tp87
a(I96
I96
tp88
a(I96
I97
tp89
a(I96
I98
tp90
a(I96
I99
tp91
a(I96
I100
tp92
a(I96
I101
tp93
a(I96
I102
tp94
a(I96
I103
tp95
a(I96
I104
tp96
a(I96
I105
tp97
a(I96
I106
tp98
a(I96
I107
tp99
a(I96
I108
tp100
a(I96
I109
tp101
a(I96
I110
tp102
a(I96
I111
tp103
a(I96
I112
tp104
a(I96
I113
tp105
a(I96
I114
tp106
a(I96
I115
tp107
a(I96
I116
tp108
a(I96
I117
tp109
a(I96
I118
tp110
a(I96
I119
tp111
a(I96
I120
tp112
a(I96
I121
tp113
a(I96
I122
tp114
a(I96
I123
tp115
a(I96
I124
tp116
a(I96
I125
tp117
a(I96
I126
tp118
a(I96
I127
tp119
a(I96
I128
tp120
a(I96
I129
tp121
a(I96
I130
tp122
a(I96
I131
tp123
a(I96
I132
tp124
a(I96
I133
tp125
a(I96
I134
tp126
a(I96
I135
tp127
a(I96
I136
tp128
a(I96
I137
tp129
a(I96
I138
tp130
a(I96
I139
tp131
a(I96
I140
tp132
a(I96
I141
tp133
a(I96
I142
tp134
a(I96
I143
tp135
a(I96
I144
tp136
a(I96
I145
tp137
a(I96
I146
tp138
a(I96
I147
tp139
a(I96
I148
tp140
a(I96
I149
tp141
a(I96
I150
tp142
a(I96
I151
tp143
a(I96
I152
tp144
a(I96
I153
tp145
a(I96
I154
tp146
a(I96
I155
tp147
a(I96
I156
tp148
a(I96
I157
tp149
a(I96
I158
tp150
a(I96
I159
tp151
a(I96
I160
tp152
a(I96
I161
tp153
a(I96
I162
tp154
a(I96
I163
tp155
a(I96
I164
tp156
a(I96
I165
tp157
a(I96
I166
tp158
a(I96
I167
tp159
a(I96
I168
tp160
a(I96
I169
tp161
a(I96
I170
tp162
a(I96
I171
tp163
a(I96
I172
tp164
a(I96
I173
tp165
a(I96
I174
tp166
a(I96
I175
tp167
a(I96
I176
tp168
a(I96
I177
tp169
a(I96
I178
tp170
a(I96
I179
tp171
a(I96
I180
tp172
a(I96
I181
tp173
a(I96
I182
tp174
a(I96
I183
tp175
a(I96
I184
tp176
a(I97
I9
tp177
a(I97
I10
tp178
a(I97
I11
tp179
a(I97
I12
tp180
a(I97
I13
tp181
a(I97
I14
tp182
a(I97
I15
tp183
a(I97
I16
tp184
a(I97
I17
tp185
a(I97
I18
tp186
a(I97
I19
tp187
a(I97
I20
tp188
a(I97
I21
tp189
a(I97
I22
tp190
a(I97
I23
tp191
a(I97
I24
tp192
a(I97
I25
tp193
a(I97
I26
tp194
a(I97
I27
tp195
a(I97
I28
tp196
a(I97
I29
tp197
a(I97
I30
tp198
a(I97
I31
tp199
a(I97
I32
tp200
a(I97
I33
tp201
a(I97
I34
tp202
a(I97
I35
tp203
a(I97
I36
tp204
a(I97
I37
tp205
a(I97
I38
tp206
a(I97
I39
tp207
a(I97
I40
tp208
a(I97
I41
tp209
a(I97
I42
tp210
a(I97
I43
tp211
a(I97
I44
tp212
a(I97
I45
tp213
a(I97
I46
tp214
a(I97
I47
tp215
a(I97
I48
tp216
a(I97
I49
tp217
a(I97
I50
tp218
a(I97
I51
tp219
a(I97
I52
tp220
a(I97
I53
tp221
a(I97
I54
tp222
a(I97
I55
tp223
a(I97
I56
tp224
a(I97
I57
tp225
a(I97
I58
tp226
a(I97
I59
tp227
a(I97
I60
tp228
a(I97
I61
tp229
a(I97
I62
tp230
a(I97
I63
tp231
a(I97
I64
tp232
a(I97
I65
tp233
a(I97
I66
tp234
a(I97
I67
tp235
a(I97
I68
tp236
a(I97
I69
tp237
a(I97
I70
tp238
a(I97
I71
tp239
a(I97
I72
tp240
a(I97
I73
tp241
a(I97
I74
tp242
a(I97
I75
tp243
a(I97
I76
tp244
a(I97
I77
tp245
a(I97
I78
tp246
a(I97
I79
tp247
a(I97
I80
tp248
a(I97
I81
tp249
a(I97
I82
tp250
a(I97
I83
tp251
a(I97
I84
tp252
a(I97
I85
tp253
a(I97
I86
tp254
a(I97
I87
tp255
a(I97
I88
tp256
a(I97
I89
tp257
a(I97
I90
tp258
a(I97
I91
tp259
a(I97
I92
tp260
a(I97
I93
tp261
a(I97
I94
tp262
a(I97
I95
tp263
a(I97
I96
tp264
a(I97
I97
tp265
a(I97
I98
tp266
a(I97
I99
tp267
a(I97
I100
tp268
a(I97
I101
tp269
a(I97
I102
tp270
a(I97
I103
tp271
a(I97
I104
tp272
a(I97
I105
tp273
a(I97
I106
tp274
a(I97
I107
tp275
a(I97
I108
tp276
a(I97
I109
tp277
a(I97
I110
tp278
a(I97
I111
tp279
a(I97
I112
tp280
a(I97
I113
tp281
a(I97
I114
tp282
a(I97
I115
tp283
a(I97
I116
tp284
a(I97
I117
tp285
a(I97
I118
tp286
a(I97
I119
tp287
a(I97
I120
tp288
a(I97
I121
tp289
a(I97
I122
tp290
a(I97
I123
tp291
a(I97
I124
tp292
a(I97
I125
tp293
a(I97
I126
tp294
a(I97
I127
tp295
a(I97
I128
tp296
a(I97
I129
tp297
a(I97
I130
tp298
a(I97
I131
tp299
a(I97
I132
tp300
a(I97
I133
tp301
a(I97
I134
tp302
a(I97
I135
tp303
a(I97
I136
tp304
a(I97
I137
tp305
a(I97
I138
tp306
a(I97
I139
tp307
a(I97
I140
tp308
a(I97
I141
tp309
a(I97
I142
tp310
a(I97
I143
tp311
a(I97
I144
tp312
a(I97
I145
tp313
a(I97
I146
tp314
a(I97
I147
tp315
a(I97
I148
tp316
a(I97
I149
tp317
a(I97
I150
tp318
a(I97
I151
tp319
a(I97
I152
tp320
a(I97
I153
tp321
a(I97
I154
tp322
a(I97
I155
tp323
a(I97
I156
tp324
a(I97
I157
tp325
a(I97
I158
tp326
a(I97
I159
tp327
a(I97
I160
tp328
a(I97
I161
tp329
a(I97
I162
tp330
a(I97
I163
tp331
a(I97
I164
tp332
a(I97
I165
tp333
a(I97
I166
tp334
a(I97
I167
tp335
a(I97
I168
tp336
a(I97
I169
tp337
a(I97
I170
tp338
a(I97
I171
tp339
a(I97
I172
tp340
a(I97
I173
tp341
a(I97
I174
tp342
a(I97
I175
tp343
a(I97
I176
tp344
a(I97
I177
tp345
a(I97
I178
tp346
a(I97
I179
tp347
a(I97
I180
tp348
a(I97
I181
tp349
a(I97
I182
tp350
a(I97
I183
tp351
a(I97
I184
tp352
a(I98
I9
tp353
a(I98
I10
tp354
a(I98
I11
tp355
a(I98
I12
tp356
a(I98
I13
tp357
a(I98
I14
tp358
a(I98
I15
tp359
a(I98
I16
tp360
a(I98
I17
tp361
a(I98
I18
tp362
a(I98
I19
tp363
a(I98
I20
tp364
a(I98
I21
tp365
a(I98
I22
tp366
a(I98
I23
tp367
a(I98
I24
tp368
a(I98
I25
tp369
a(I98
I26
tp370
a(I98
I27
tp371
a(I98
I28
tp372
a(I98
I29
tp373
a(I98
I30
tp374
a(I98
I31
tp375
a(I98
I32
tp376
a(I98
I33
tp377
a(I98
I34
tp378
a(I98
I35
tp379
a(I98
I36
tp380
a(I98
I37
tp381
a(I98
I38
tp382
a(I98
I39
tp383
a(I98
I40
tp384
a(I98
I41
tp385
a(I98
I42
tp386
a(I98
I43
tp387
a(I98
I44
tp388
a(I98
I45
tp389
a(I98
I46
tp390
a(I98
I47
tp391
a(I98
I48
tp392
a(I98
I49
tp393
a(I98
I50
tp394
a(I98
I51
tp395
a(I98
I52
tp396
a(I98
I53
tp397
a(I98
I54
tp398
a(I98
I55
tp399
a(I98
I56
tp400
a(I98
I57
tp401
a(I98
I58
tp402
a(I98
I59
tp403
a(I98
I60
tp404
a(I98
I61
tp405
a(I98
I62
tp406
a(I98
I63
tp407
a(I98
I64
tp408
a(I98
I65
tp409
a(I98
I66
tp410
a(I98
I67
tp411
a(I98
I68
tp412
a(I98
I69
tp413
a(I98
I70
tp414
a(I98
I71
tp415
a(I98
I72
tp416
a(I98
I73
tp417
a(I98
I74
tp418
a(I98
I75
tp419
a(I98
I76
tp420
a(I98
I77
tp421
a(I98
I78
tp422
a(I98
I79
tp423
a(I98
I80
tp424
a(I98
I81
tp425
a(I98
I82
tp426
a(I98
I83
tp427
a(I98
I84
tp428
a(I98
I85
tp429
a(I98
I86
tp430
a(I98
I87
tp431
a(I98
I88
tp432
a(I98
I89
tp433
a(I98
I90
tp434
a(I98
I91
tp435
a(I98
I92
tp436
a(I98
I93
tp437
a(I98
I94
tp438
a(I98
I95
tp439
a(I98
I96
tp440
a(I98
I97
tp441
a(I98
I98
tp442
a(I98
I99
tp443
a(I98
I100
tp444
a(I98
I101
tp445
a(I98
I102
tp446
a(I98
I103
tp447
a(I98
I104
tp448
a(I98
I105
tp449
a(I98
I106
tp450
a(I98
I107
tp451
a(I98
I108
tp452
a(I98
I109
tp453
a(I98
I110
tp454
a(I98
I111
tp455
a(I98
I112
tp456
a(I98
I113
tp457
a(I98
I114
tp458
a(I98
I115
tp459
a(I98
I116
tp460
a(I98
I117
tp461
a(I98
I118
tp462
a(I98
I119
tp463
a(I98
I120
tp464
a(I98
I121
tp465
a(I98
I122
tp466
a(I98
I123
tp467
a(I98
I124
tp468
a(I98
I125
tp469
a(I98
I126
tp470
a(I98
I127
tp471
a(I98
I128
tp472
a(I98
I129
tp473
a(I98
I130
tp474
a(I98
I131
tp475
a(I98
I132
tp476
a(I98
I133
tp477
a(I98
I134
tp478
a(I98
I135
tp479
a(I98
I136
tp480
a(I98
I137
tp481
a(I98
I138
tp482
a(I98
I139
tp483
a(I98
I140
tp484
a(I98
I141
tp485
a(I98
I142
tp486
a(I98
I143
tp487
a(I98
I144
tp488
a(I98
I145
tp489
a(I98
I146
tp490
a(I98
I147
tp491
a(I98
I148
tp492
a(I98
I149
tp493
a(I98
I150
tp494
a(I98
I151
tp495
a(I98
I152
tp496
a(I98
I153
tp497
a(I98
I154
tp498
a(I98
I155
tp499
a(I98
I156
tp500
a(I98
I157
tp501
a(I98
I158
tp502
a(I98
I159
tp503
a(I98
I160
tp504
a(I98
I161
tp505
a(I98
I162
tp506
a(I98
I163
tp507
a(I98
I164
tp508
a(I98
I165
tp509
a(I98
I166
tp510
a(I98
I167
tp511
a(I98
I168
tp512
a(I98
I169
tp513
a(I98
I170
tp514
a(I98
I171
tp515
a(I98
I172
tp516
a(I98
I173
tp517
a(I98
I174
tp518
a(I98
I175
tp519
a(I98
I176
tp520
a(I98
I177
tp521
a(I98
I178
tp522
a(I98
I179
tp523
a(I98
I180
tp524
a(I98
I181
tp525
a(I98
I182
tp526
a(I98
I183
tp527
a(I98
I184
tp528
a(I99
I9
tp529
a(I99
I10
tp530
a(I99
I11
tp531
a(I99
I12
tp532
a(I99
I13
tp533
a(I99
I14
tp534
a(I99
I15
tp535
a(I99
I16
tp536
a(I99
I17
tp537
a(I99
I18
tp538
a(I99
I19
tp539
a(I99
I20
tp540
a(I99
I21
tp541
a(I99
I22
tp542
a(I99
I23
tp543
a(I99
I24
tp544
a(I99
I25
tp545
a(I99
I26
tp546
a(I99
I27
tp547
a(I99
I28
tp548
a(I99
I29
tp549
a(I99
I30
tp550
a(I99
I31
tp551
a(I99
I32
tp552
a(I99
I33
tp553
a(I99
I34
tp554
a(I99
I35
tp555
a(I99
I36
tp556
a(I99
I37
tp557
a(I99
I38
tp558
a(I99
I39
tp559
a(I99
I40
tp560
a(I99
I41
tp561
a(I99
I42
tp562
a(I99
I43
tp563
a(I99
I44
tp564
a(I99
I45
tp565
a(I99
I46
tp566
a(I99
I47
tp567
a(I99
I48
tp568
a(I99
I49
tp569
a(I99
I50
tp570
a(I99
I51
tp571
a(I99
I52
tp572
a(I99
I53
tp573
a(I99
I54
tp574
a(I99
I55
tp575
a(I99
I56
tp576
a(I99
I57
tp577
a(I99
I58
tp578
a(I99
I59
tp579
a(I99
I60
tp580
a(I99
I61
tp581
a(I99
I62
tp582
a(I99
I63
tp583
a(I99
I64
tp584
a(I99
I65
tp585
a(I99
I66
tp586
a(I99
I67
tp587
a(I99
I68
tp588
a(I99
I69
tp589
a(I99
I70
tp590
a(I99
I71
tp591
a(I99
I72
tp592
a(I99
I73
tp593
a(I99
I74
tp594
a(I99
I75
tp595
a(I99
I76
tp596
a(I99
I77
tp597
a(I99
I78
tp598
a(I99
I79
tp599
a(I99
I80
tp600
a(I99
I81
tp601
a(I99
I82
tp602
a(I99
I83
tp603
a(I99
I84
tp604
a(I99
I85
tp605
a(I99
I86
tp606
a(I99
I87
tp607
a(I99
I88
tp608
a(I99
I89
tp609
a(I99
I90
tp610
a(I99
I91
tp611
a(I99
I92
tp612
a(I99
I93
tp613
a(I99
I94
tp614
a(I99
I95
tp615
a(I99
I96
tp616
a(I99
I97
tp617
a(I99
I98
tp618
a(I99
I99
tp619
a(I99
I100
tp620
a(I99
I101
tp621
a(I99
I102
tp622
a(I99
I103
tp623
a(I99
I104
tp624
a(I99
I105
tp625
a(I99
I106
tp626
a(I99
I107
tp627
a(I99
I108
tp628
a(I99
I109
tp629
a(I99
I110
tp630
a(I99
I111
tp631
a(I99
I112
tp632
a(I99
I113
tp633
a(I99
I114
tp634
a(I99
I115
tp635
a(I99
I116
tp636
a(I99
I117
tp637
a(I99
I118
tp638
a(I99
I119
tp639
a(I99
I120
tp640
a(I99
I121
tp641
a(I99
I122
tp642
a(I99
I123
tp643
a(I99
I124
tp644
a(I99
I125
tp645
a(I99
I126
tp646
a(I99
I127
tp647
a(I99
I128
tp648
a(I99
I129
tp649
a(I99
I130
tp650
a(I99
I131
tp651
a(I99
I132
tp652
a(I99
I133
tp653
a(I99
I134
tp654
a(I99
I135
tp655
a(I99
I136
tp656
a(I99
I137
tp657
a(I99
I138
tp658
a(I99
I139
tp659
a(I99
I140
tp660
a(I99
I141
tp661
a(I99
I142
tp662
a(I99
I143
tp663
a(I99
I144
tp664
a(I99
I145
tp665
a(I99
I146
tp666
a(I99
I147
tp667
a(I99
I148
tp668
a(I99
I149
tp669
a(I99
I150
tp670
a(I99
I151
tp671
a(I99
I152
tp672
a(I99
I153
tp673
a(I99
I154
tp674
a(I99
I155
tp675
a(I99
I156
tp676
a(I99
I157
tp677
a(I99
I158
tp678
a(I99
I159
tp679
a(I99
I160
tp680
a(I99
I161
tp681
a(I99
I162
tp682
a(I99
I163
tp683
a(I99
I164
tp684
a(I99
I165
tp685
a(I99
I166
tp686
a(I99
I167
tp687
a(I99
I168
tp688
a(I99
I169
tp689
a(I99
I170
tp690
a(I99
I171
tp691
a(I99
I172
tp692
a(I99
I173
tp693
a(I99
I174
tp694
a(I99
I175
tp695
a(I99
I176
tp696
a(I99
I177
tp697
a(I99
I178
tp698
a(I99
I179
tp699
a(I99
I180
tp700
a(I99
I181
tp701
a(I99
I182
tp702
a(I99
I183
tp703
a(I99
I184
tp704
a(I100
I9
tp705
a(I100
I10
tp706
a(I100
I11
tp707
a(I100
I12
tp708
a(I100
I13
tp709
a(I100
I14
tp710
a(I100
I15
tp711
a(I100
I16
tp712
a(I100
I17
tp713
a(I100
I18
tp714
a(I100
I19
tp715
a(I100
I20
tp716
a(I100
I21
tp717
a(I100
I22
tp718
a(I100
I23
tp719
a(I100
I24
tp720
a(I100
I25
tp721
a(I100
I26
tp722
a(I100
I27
tp723
a(I100
I28
tp724
a(I100
I29
tp725
a(I100
I30
tp726
a(I100
I31
tp727
a(I100
I32
tp728
a(I100
I33
tp729
a(I100
I34
tp730
a(I100
I35
tp731
a(I100
I36
tp732
a(I100
I37
tp733
a(I100
I38
tp734
a(I100
I39
tp735
a(I100
I40
tp736
a(I100
I41
tp737
a(I100
I42
tp738
a(I100
I43
tp739
a(I100
I44
tp740
a(I100
I45
tp741
a(I100
I46
tp742
a(I100
I47
tp743
a(I100
I48
tp744
a(I100
I49
tp745
a(I100
I50
tp746
a(I100
I51
tp747
a(I100
I52
tp748
a(I100
I53
tp749
a(I100
I54
tp750
a(I100
I55
tp751
a(I100
I56
tp752
a(I100
I57
tp753
a(I100
I58
tp754
a(I100
I59
tp755
a(I100
I60
tp756
a(I100
I61
tp757
a(I100
I62
tp758
a(I100
I63
tp759
a(I100
I64
tp760
a(I100
I65
tp761
a(I100
I66
tp762
a(I100
I67
tp763
a(I100
I68
tp764
a(I100
I69
tp765
a(I100
I70
tp766
a(I100
I71
tp767
a(I100
I72
tp768
a(I100
I73
tp769
a(I100
I74
tp770
a(I100
I75
tp771
a(I100
I76
tp772
a(I100
I77
tp773
a(I100
I78
tp774
a(I100
I79
tp775
a(I100
I80
tp776
a(I100
I81
tp777
a(I100
I82
tp778
a(I100
I83
tp779
a(I100
I84
tp780
a(I100
I85
tp781
a(I100
I86
tp782
a(I100
I87
tp783
a(I100
I88
tp784
a(I100
I89
tp785
a(I100
I90
tp786
a(I100
I91
tp787
a(I100
I92
tp788
a(I100
I93
tp789
a(I100
I94
tp790
a(I100
I95
tp791
a(I100
I96
tp792
a(I100
I97
tp793
a(I100
I98
tp794
a(I100
I99
tp795
a(I100
I100
tp796
a(I100
I101
tp797
a(I100
I102
tp798
a(I100
I103
tp799
a(I100
I104
tp800
a(I100
I105
tp801
a(I100
I106
tp802
a(I100
I107
tp803
a(I100
I108
tp804
a(I100
I109
tp805
a(I100
I110
tp806
a(I100
I111
tp807
a(I100
I112
tp808
a(I100
I113
tp809
a(I100
I114
tp810
a(I100
I115
tp811
a(I100
I116
tp812
a(I100
I117
tp813
a(I100
I118
tp814
a(I100
I119
tp815
a(I100
I120
tp816
a(I100
I121
tp817
a(I100
I122
tp818
a(I100
I123
tp819
a(I100
I124
tp820
a(I100
I125
tp821
a(I100
I126
tp822
a(I100
I127
tp823
a(I100
I128
tp824
a(I100
I129
tp825
a(I100
I130
tp826
a(I100
I131
tp827
a(I100
I132
tp828
a(I100
I133
tp829
a(I100
I134
tp830
a(I100
I135
tp831
a(I100
I136
tp832
a(I100
I137
tp833
a(I100
I138
tp834
a(I100
I139
tp835
a(I100
I140
tp836
a(I100
I141
tp837
a(I100
I142
tp838
a(I100
I143
tp839
a(I100
I144
tp840
a(I100
I145
tp841
a(I100
I146
tp842
a(I100
I147
tp843
a(I100
I148
tp844
a(I100
I149
tp845
a(I100
I150
tp846
a(I100
I151
tp847
a(I100
I152
tp848
a(I100
I153
tp849
a(I100
I154
tp850
a(I100
I155
tp851
a(I100
I156
tp852
a(I100
I157
tp853
a(I100
I158
tp854
a(I100
I159
tp855
a(I100
I160
tp856
a(I100
I161
tp857
a(I100
I162
tp858
a(I100
I163
tp859
a(I100
I164
tp860
a(I100
I165
tp861
a(I100
I166
tp862
a(I100
I167
tp863
a(I100
I168
tp864
a(I100
I169
tp865
a(I100
I170
tp866
a(I100
I171
tp867
a(I100
I172
tp868
a(I100
I173
tp869
a(I100
I174
tp870
a(I100
I175
tp871
a(I100
I176
tp872
a(I100
I177
tp873
a(I100
I178
tp874
a(I100
I179
tp875
a(I100
I180
tp876
a(I100
I181
tp877
a(I100
I182
tp878
a(I100
I183
tp879
a(I100
I184
tp880
a(I101
I9
tp881
a(I101
I10
tp882
a(I101
I11
tp883
a(I101
I12
tp884
a(I101
I13
tp885
a(I101
I14
tp886
a(I101
I15
tp887
a(I101
I16
tp888
a(I101
I17
tp889
a(I101
I18
tp890
a(I101
I19
tp891
a(I101
I20
tp892
a(I101
I21
tp893
a(I101
I22
tp894
a(I101
I23
tp895
a(I101
I24
tp896
a(I101
I25
tp897
a(I101
I26
tp898
a(I101
I27
tp899
a(I101
I28
tp900
a(I101
I29
tp901
a(I101
I30
tp902
a(I101
I31
tp903
a(I101
I32
tp904
a(I101
I33
tp905
a(I101
I34
tp906
a(I101
I35
tp907
a(I101
I36
tp908
a(I101
I37
tp909
a(I101
I38
tp910
a(I101
I39
tp911
a(I101
I40
tp912
a(I101
I41
tp913
a(I101
I42
tp914
a(I101
I43
tp915
a(I101
I44
tp916
a(I101
I45
tp917
a(I101
I46
tp918
a(I101
I47
tp919
a(I101
I48
tp920
a(I101
I49
tp921
a(I101
I50
tp922
a(I101
I51
tp923
a(I101
I52
tp924
a(I101
I53
tp925
a(I101
I54
tp926
a(I101
I55
tp927
a(I101
I56
tp928
a(I101
I57
tp929
a(I101
I58
tp930
a(I101
I59
tp931
a(I101
I60
tp932
a(I101
I61
tp933
a(I101
I62
tp934
a(I101
I63
tp935
a(I101
I64
tp936
a(I101
I65
tp937
a(I101
I66
tp938
a(I101
I67
tp939
a(I101
I68
tp940
a(I101
I69
tp941
a(I101
I70
tp942
a(I101
I71
tp943
a(I101
I72
tp944
a(I101
I73
tp945
a(I101
I74
tp946
a(I101
I75
tp947
a(I101
I76
tp948
a(I101
I77
tp949
a(I101
I78
tp950
a(I101
I79
tp951
a(I101
I80
tp952
a(I101
I81
tp953
a(I101
I82
tp954
a(I101
I83
tp955
a(I101
I84
tp956
a(I101
I85
tp957
a(I101
I86
tp958
a(I101
I87
tp959
a(I101
I88
tp960
a(I101
I89
tp961
a(I101
I90
tp962
a(I101
I91
tp963
a(I101
I92
tp964
a(I101
I93
tp965
a(I101
I94
tp966
a(I101
I95
tp967
a(I101
I96
tp968
a(I101
I97
tp969
a(I101
I98
tp970
a(I101
I99
tp971
a(I101
I100
tp972
a(I101
I101
tp973
a(I101
I102
tp974
a(I101
I103
tp975
a(I101
I104
tp976
a(I101
I105
tp977
a(I101
I106
tp978
a(I101
I107
tp979
a(I101
I108
tp980
a(I101
I109
tp981
a(I101
I110
tp982
a(I101
I111
tp983
a(I101
I112
tp984
a(I101
I113
tp985
a(I101
I114
tp986
a(I101
I115
tp987
a(I101
I116
tp988
a(I101
I117
tp989
a(I101
I118
tp990
a(I101
I119
tp991
a(I101
I120
tp992
a(I101
I121
tp993
a(I101
I122
tp994
a(I101
I123
tp995
a(I101
I124
tp996
a(I101
I125
tp997
a(I101
I126
tp998
a(I101
I127
tp999
a(I101
I128
tp1000
a(I101
I129
tp1001
a(I101
I130
tp1002
a(I101
I131
tp1003
a(I101
I132
tp1004
a(I101
I133
tp1005
a(I101
I134
tp1006
a(I101
I135
tp1007
a(I101
I136
tp1008
a(I101
I137
tp1009
a(I101
I138
tp1010
a(I101
I139
tp1011
a(I101
I140
tp1012
a(I101
I141
tp1013
a(I101
I142
tp1014
a(I101
I143
tp1015
a(I101
I144
tp1016
a(I101
I145
tp1017
a(I101
I146
tp1018
a(I101
I147
tp1019
a(I101
I148
tp1020
a(I101
I149
tp1021
a(I101
I150
tp1022
a(I101
I151
tp1023
a(I101
I152
tp1024
a(I101
I153
tp1025
a(I101
I154
tp1026
a(I101
I155
tp1027
a(I101
I156
tp1028
a(I101
I157
tp1029
a(I101
I158
tp1030
a(I101
I159
tp1031
a(I101
I160
tp1032
a(I101
I161
tp1033
a(I101
I162
tp1034
a(I101
I163
tp1035
a(I101
I164
tp1036
a(I101
I165
tp1037
a(I101
I166
tp1038
a(I101
I167
tp1039
a(I101
I168
tp1040
a(I101
I169
tp1041
a(I101
I170
tp1042
a(I101
I171
tp1043
a(I101
I172
tp1044
a(I101
I173
tp1045
a(I101
I174
tp1046
a(I101
I175
tp1047
a(I101
I176
tp1048
a(I101
I177
tp1049
a(I101
I178
tp1050
a(I101
I179
tp1051
a(I101
I180
tp1052
a(I101
I181
tp1053
a(I101
I182
tp1054
a(I101
I183
tp1055
a(I101
I184
tp1056
a(I102
I9
tp1057
a(I102
I10
tp1058
a(I102
I11
tp1059
a(I102
I12
tp1060
a(I102
I13
tp1061
a(I102
I14
tp1062
a(I102
I15
tp1063
a(I102
I16
tp1064
a(I102
I17
tp1065
a(I102
I18
tp1066
a(I102
I19
tp1067
a(I102
I20
tp1068
a(I102
I21
tp1069
a(I102
I22
tp1070
a(I102
I23
tp1071
a(I102
I24
tp1072
a(I102
I25
tp1073
a(I102
I26
tp1074
a(I102
I27
tp1075
a(I102
I28
tp1076
a(I102
I29
tp1077
a(I102
I30
tp1078
a(I102
I31
tp1079
a(I102
I32
tp1080
a(I102
I33
tp1081
a(I102
I34
tp1082
a(I102
I35
tp1083
a(I102
I36
tp1084
a(I102
I37
tp1085
a(I102
I38
tp1086
a(I102
I39
tp1087
a(I102
I40
tp1088
a(I102
I41
tp1089
a(I102
I42
tp1090
a(I102
I43
tp1091
a(I102
I44
tp1092
a(I102
I45
tp1093
a(I102
I46
tp1094
a(I102
I47
tp1095
a(I102
I48
tp1096
a(I102
I49
tp1097
a(I102
I50
tp1098
a(I102
I51
tp1099
a(I102
I52
tp1100
a(I102
I53
tp1101
a(I102
I54
tp1102
a(I102
I55
tp1103
a(I102
I56
tp1104
a(I102
I57
tp1105
a(I102
I58
tp1106
a(I102
I59
tp1107
a(I102
I60
tp1108
a(I102
I61
tp1109
a(I102
I62
tp1110
a(I102
I63
tp1111
a(I102
I64
tp1112
a(I102
I65
tp1113
a(I102
I66
tp1114
a(I102
I67
tp1115
a(I102
I68
tp1116
a(I102
I69
tp1117
a(I102
I70
tp1118
a(I102
I71
tp1119
a(I102
I72
tp1120
a(I102
I73
tp1121
a(I102
I74
tp1122
a(I102
I75
tp1123
a(I102
I76
tp1124
a(I102
I77
tp1125
a(I102
I78
tp1126
a(I102
I79
tp1127
a(I102
I80
tp1128
a(I102
I81
tp1129
a(I102
I82
tp1130
a(I102
I83
tp1131
a(I102
I84
tp1132
a(I102
I85
tp1133
a(I102
I86
tp1134
a(I102
I87
tp1135
a(I102
I88
tp1136
a(I102
I89
tp1137
a(I102
I90
tp1138
a(I102
I91
tp1139
a(I102
I92
tp1140
a(I102
I93
tp1141
a(I102
I94
tp1142
a(I102
I95
tp1143
a(I102
I96
tp1144
a(I102
I97
tp1145
a(I102
I98
tp1146
a(I102
I99
tp1147
a(I102
I100
tp1148
a(I102
I101
tp1149
a(I102
I102
tp1150
a(I102
I103
tp1151
a(I102
I104
tp1152
a(I102
I105
tp1153
a(I102
I106
tp1154
a(I102
I107
tp1155
a(I102
I108
tp1156
a(I102
I109
tp1157
a(I102
I110
tp1158
a(I102
I111
tp1159
a(I102
I112
tp1160
a(I102
I113
tp1161
a(I102
I114
tp1162
a(I102
I115
tp1163
a(I102
I116
tp1164
a(I102
I117
tp1165
a(I102
I118
tp1166
a(I102
I119
tp1167
a(I102
I120
tp1168
a(I102
I121
tp1169
a(I102
I122
tp1170
a(I102
I123
tp1171
a(I102
I124
tp1172
a(I102
I125
tp1173
a(I102
I126
tp1174
a(I102
I127
tp1175
a(I102
I128
tp1176
a(I102
I129
tp1177
a(I102
I130
tp1178
a(I102
I131
tp1179
a(I102
I132
tp1180
a(I102
I133
tp1181
a(I102
I134
tp1182
a(I102
I135
tp1183
a(I102
I136
tp1184
a(I102
I137
tp1185
a(I102
I138
tp1186
a(I102
I139
tp1187
a(I102
I140
tp1188
a(I102
I141
tp1189
a(I102
I142
tp1190
a(I102
I143
tp1191
a(I102
I144
tp1192
a(I102
I145
tp1193
a(I102
I146
tp1194
a(I102
I147
tp1195
a(I102
I148
tp1196
a(I102
I149
tp1197
a(I102
I150
tp1198
a(I102
I151
tp1199
a(I102
I152
tp1200
a(I102
I153
tp1201
a(I102
I154
tp1202
a(I102
I155
tp1203
a(I102
I156
tp1204
a(I102
I157
tp1205
a(I102
I158
tp1206
a(I102
I159
tp1207
a(I102
I160
tp1208
a(I102
I161
tp1209
a(I102
I162
tp1210
a(I102
I163
tp1211
a(I102
I164
tp1212
a(I102
I165
tp1213
a(I102
I166
tp1214
a(I102
I167
tp1215
a(I102
I168
tp1216
a(I102
I169
tp1217
a(I102
I170
tp1218
a(I102
I171
tp1219
a(I102
I172
tp1220
a(I102
I173
tp1221
a(I102
I174
tp1222
a(I102
I175
tp1223
a(I102
I176
tp1224
a(I102
I177
tp1225
a(I102
I178
tp1226
a(I102
I179
tp1227
a(I102
I180
tp1228
a(I102
I181
tp1229
a(I102
I182
tp1230
a(I102
I183
tp1231
a(I102
I184
tp1232
a(I103
I9
tp1233
a(I103
I10
tp1234
a(I103
I11
tp1235
a(I103
I12
tp1236
a(I103
I13
tp1237
a(I103
I14
tp1238
a(I103
I176
tp1239
a(I103
I177
tp1240
a(I103
I178
tp1241
a(I103
I179
tp1242
a(I103
I180
tp1243
a(I103
I181
tp1244
a(I103
I182
tp1245
a(I103
I183
tp1246
a(I103
I184
tp1247
a(I104
I9
tp1248
a(I104
I10
tp1249
a(I104
I11
tp1250
a(I104
I12
tp1251
a(I104
I13
tp1252
a(I104
I14
tp1253
a(I104
I176
tp1254
a(I104
I177
tp1255
a(I104
I178
tp1256
a(I104
I179
tp1257
a(I104
I180
tp1258
a(I104
I181
tp1259
a(I104
I182
tp1260
a(I104
I183
tp1261
a(I104
I184
tp1262
a(I105
I9
tp1263
a(I105
I10
tp1264
a(I105
I11
tp1265
a(I105
I12
tp1266
a(I105
I13
tp1267
a(I105
I14
tp1268
a(I105
I176
tp1269
a(I105
I177
tp1270
a(I105
I178
tp1271
a(I105
I179
tp1272
a(I105
I180
tp1273
a(I105
I181
tp1274
a(I105
I182
tp1275
a(I105
I183
tp1276
a(I105
I184
tp1277
a(I106
I9
tp1278
a(I106
I10
tp1279
a(I106
I11
tp1280
a(I106
I12
tp1281
a(I106
I13
tp1282
a(I106
I14
tp1283
a(I106
I176
tp1284
a(I106
I177
tp1285
a(I106
I178
tp1286
a(I106
I179
tp1287
a(I106
I180
tp1288
a(I106
I181
tp1289
a(I106
I182
tp1290
a(I106
I183
tp1291
a(I106
I184
tp1292
a(I107
I9
tp1293
a(I107
I10
tp1294
a(I107
I11
tp1295
a(I107
I12
tp1296
a(I107
I13
tp1297
a(I107
I14
tp1298
a(I107
I176
tp1299
a(I107
I177
tp1300
a(I107
I178
tp1301
a(I107
I179
tp1302
a(I107
I180
tp1303
a(I107
I181
tp1304
a(I107
I182
tp1305
a(I107
I183
tp1306
a(I107
I184
tp1307
a(I108
I9
tp1308
a(I108
I10
tp1309
a(I108
I11
tp1310
a(I108
I12
tp1311
a(I108
I13
tp1312
a(I108
I14
tp1313
a(I108
I176
tp1314
a(I108
I177
tp1315
a(I108
I178
tp1316
a(I108
I179
tp1317
a(I108
I180
tp1318
a(I108
I181
tp1319
a(I108
I182
tp1320
a(I108
I183
tp1321
a(I108
I184
tp1322
a(I109
I9
tp1323
a(I109
I10
tp1324
a(I109
I11
tp1325
a(I109
I12
tp1326
a(I109
I13
tp1327
a(I109
I14
tp1328
a(I109
I176
tp1329
a(I109
I177
tp1330
a(I109
I178
tp1331
a(I109
I179
tp1332
a(I109
I180
tp1333
a(I109
I181
tp1334
a(I109
I182
tp1335
a(I109
I183
tp1336
a(I109
I184
tp1337
a(I110
I9
tp1338
a(I110
I10
tp1339
a(I110
I11
tp1340
a(I110
I12
tp1341
a(I110
I13
tp1342
a(I110
I14
tp1343
a(I110
I176
tp1344
a(I110
I177
tp1345
a(I110
I178
tp1346
a(I110
I179
tp1347
a(I110
I180
tp1348
a(I110
I181
tp1349
a(I110
I182
tp1350
a(I110
I183
tp1351
a(I110
I184
tp1352
a(I111
I9
tp1353
a(I111
I10
tp1354
a(I111
I11
tp1355
a(I111
I12
tp1356
a(I111
I13
tp1357
a(I111
I14
tp1358
a(I111
I176
tp1359
a(I111
I177
tp1360
a(I111
I178
tp1361
a(I111
I179
tp1362
a(I111
I180
tp1363
a(I111
I181
tp1364
a(I111
I182
tp1365
a(I111
I183
tp1366
a(I111
I184
tp1367
a(I112
I9
tp1368
a(I112
I10
tp1369
a(I112
I11
tp1370
a(I112
I12
tp1371
a(I112
I13
tp1372
a(I112
I14
tp1373
a(I112
I176
tp1374
a(I112
I177
tp1375
a(I112
I178
tp1376
a(I112
I179
tp1377
a(I112
I180
tp1378
a(I112
I181
tp1379
a(I112
I182
tp1380
a(I112
I183
tp1381
a(I112
I184
tp1382
a(I113
I9
tp1383
a(I113
I10
tp1384
a(I113
I11
tp1385
a(I113
I12
tp1386
a(I113
I13
tp1387
a(I113
I14
tp1388
a(I113
I176
tp1389
a(I113
I177
tp1390
a(I113
I178
tp1391
a(I113
I179
tp1392
a(I113
I180
tp1393
a(I113
I181
tp1394
a(I113
I182
tp1395
a(I113
I183
tp1396
a(I113
I184
tp1397
a(I114
I9
tp1398
a(I114
I10
tp1399
a(I114
I11
tp1400
a(I114
I12
tp1401
a(I114
I13
tp1402
a(I114
I14
tp1403
a(I114
I176
tp1404
a(I114
I177
tp1405
a(I114
I178
tp1406
a(I114
I179
tp1407
a(I114
I180
tp1408
a(I114
I181
tp1409
a(I114
I182
tp1410
a(I114
I183
tp1411
a(I114
I184
tp1412
a(I115
I9
tp1413
a(I115
I10
tp1414
a(I115
I11
tp1415
a(I115
I12
tp1416
a(I115
I13
tp1417
a(I115
I14
tp1418
a(I115
I176
tp1419
a(I115
I177
tp1420
a(I115
I178
tp1421
a(I115
I179
tp1422
a(I115
I180
tp1423
a(I115
I181
tp1424
a(I115
I182
tp1425
a(I115
I183
tp1426
a(I115
I184
tp1427
a(I116
I9
tp1428
a(I116
I10
tp1429
a(I116
I11
tp1430
a(I116
I12
tp1431
a(I116
I13
tp1432
a(I116
I14
tp1433
a(I116
I176
tp1434
a(I116
I177
tp1435
a(I116
I178
tp1436
a(I116
I179
tp1437
a(I116
I180
tp1438
a(I116
I181
tp1439
a(I116
I182
tp1440
a(I116
I183
tp1441
a(I116
I184
tp1442
a(I117
I9
tp1443
a(I117
I10
tp1444
a(I117
I11
tp1445
a(I117
I12
tp1446
a(I117
I13
tp1447
a(I117
I14
tp1448
a(I117
I176
tp1449
a(I117
I177
tp1450
a(I117
I178
tp1451
a(I117
I179
tp1452
a(I117
I180
tp1453
a(I117
I181
tp1454
a(I117
I182
tp1455
a(I117
I183
tp1456
a(I117
I184
tp1457
a(I118
I9
tp1458
a(I118
I10
tp1459
a(I118
I11
tp1460
a(I118
I12
tp1461
a(I118
I13
tp1462
a(I118
I14
tp1463
a(I118
I176
tp1464
a(I118
I177
tp1465
a(I118
I178
tp1466
a(I118
I179
tp1467
a(I118
I180
tp1468
a(I118
I181
tp1469
a(I118
I182
tp1470
a(I118
I183
tp1471
a(I118
I184
tp1472
a(I119
I9
tp1473
a(I119
I10
tp1474
a(I119
I11
tp1475
a(I119
I12
tp1476
a(I119
I13
tp1477
a(I119
I14
tp1478
a(I119
I176
tp1479
a(I119
I177
tp1480
a(I119
I178
tp1481
a(I119
I179
tp1482
a(I119
I180
tp1483
a(I119
I181
tp1484
a(I119
I182
tp1485
a(I119
I183
tp1486
a(I119
I184
tp1487
a(I120
I9
tp1488
a(I120
I10
tp1489
a(I120
I11
tp1490
a(I120
I12
tp1491
a(I120
I13
tp1492
a(I120
I14
tp1493
a(I120
I176
tp1494
a(I120
I177
tp1495
a(I120
I178
tp1496
a(I120
I179
tp1497
a(I120
I180
tp1498
a(I120
I181
tp1499
a(I120
I182
tp1500
a(I120
I183
tp1501
a(I120
I184
tp1502
a(I121
I9
tp1503
a(I121
I10
tp1504
a(I121
I11
tp1505
a(I121
I12
tp1506
a(I121
I13
tp1507
a(I121
I14
tp1508
a(I121
I176
tp1509
a(I121
I177
tp1510
a(I121
I178
tp1511
a(I121
I179
tp1512
a(I121
I180
tp1513
a(I121
I181
tp1514
a(I121
I182
tp1515
a(I121
I183
tp1516
a(I121
I184
tp1517
a(I122
I9
tp1518
a(I122
I10
tp1519
a(I122
I11
tp1520
a(I122
I12
tp1521
a(I122
I13
tp1522
a(I122
I14
tp1523
a(I122
I176
tp1524
a(I122
I177
tp1525
a(I122
I178
tp1526
a(I122
I179
tp1527
a(I122
I180
tp1528
a(I122
I181
tp1529
a(I122
I182
tp1530
a(I122
I183
tp1531
a(I122
I184
tp1532
a(I123
I9
tp1533
a(I123
I10
tp1534
a(I123
I11
tp1535
a(I123
I12
tp1536
a(I123
I13
tp1537
a(I123
I14
tp1538
a(I123
I176
tp1539
a(I123
I177
tp1540
a(I123
I178
tp1541
a(I123
I179
tp1542
a(I123
I180
tp1543
a(I123
I181
tp1544
a(I123
I182
tp1545
a(I123
I183
tp1546
a(I123
I184
tp1547
a(I124
I9
tp1548
a(I124
I10
tp1549
a(I124
I11
tp1550
a(I124
I12
tp1551
a(I124
I13
tp1552
a(I124
I14
tp1553
a(I124
I176
tp1554
a(I124
I177
tp1555
a(I124
I178
tp1556
a(I124
I179
tp1557
a(I124
I180
tp1558
a(I124
I181
tp1559
a(I124
I182
tp1560
a(I124
I183
tp1561
a(I124
I184
tp1562
a(I125
I9
tp1563
a(I125
I10
tp1564
a(I125
I11
tp1565
a(I125
I12
tp1566
a(I125
I13
tp1567
a(I125
I14
tp1568
a(I125
I176
tp1569
a(I125
I177
tp1570
a(I125
I178
tp1571
a(I125
I179
tp1572
a(I125
I180
tp1573
a(I125
I181
tp1574
a(I125
I182
tp1575
a(I125
I183
tp1576
a(I125
I184
tp1577
a(I126
I9
tp1578
a(I126
I10
tp1579
a(I126
I11
tp1580
a(I126
I12
tp1581
a(I126
I13
tp1582
a(I126
I14
tp1583
a(I126
I176
tp1584
a(I126
I177
tp1585
a(I126
I178
tp1586
a(I126
I179
tp1587
a(I126
I180
tp1588
a(I126
I181
tp1589
a(I126
I182
tp1590
a(I126
I183
tp1591
a(I126
I184
tp1592
a(I127
I9
tp1593
a(I127
I10
tp1594
a(I127
I11
tp1595
a(I127
I12
tp1596
a(I127
I13
tp1597
a(I127
I14
tp1598
a(I127
I176
tp1599
a(I127
I177
tp1600
a(I127
I178
tp1601
a(I127
I179
tp1602
a(I127
I180
tp1603
a(I127
I181
tp1604
a(I127
I182
tp1605
a(I127
I183
tp1606
a(I127
I184
tp1607
a(I128
I9
tp1608
a(I128
I10
tp1609
a(I128
I11
tp1610
a(I128
I12
tp1611
a(I128
I13
tp1612
a(I128
I14
tp1613
a(I128
I176
tp1614
a(I128
I177
tp1615
a(I128
I178
tp1616
a(I128
I179
tp1617
a(I128
I180
tp1618
a(I128
I181
tp1619
a(I128
I182
tp1620
a(I128
I183
tp1621
a(I128
I184
tp1622
a(I129
I9
tp1623
a(I129
I10
tp1624
a(I129
I11
tp1625
a(I129
I12
tp1626
a(I129
I13
tp1627
a(I129
I14
tp1628
a(I129
I176
tp1629
a(I129
I177
tp1630
a(I129
I178
tp1631
a(I129
I179
tp1632
a(I129
I180
tp1633
a(I129
I181
tp1634
a(I129
I182
tp1635
a(I129
I183
tp1636
a(I129
I184
tp1637
a(I130
I9
tp1638
a(I130
I10
tp1639
a(I130
I11
tp1640
a(I130
I12
tp1641
a(I130
I13
tp1642
a(I130
I14
tp1643
a(I130
I176
tp1644
a(I130
I177
tp1645
a(I130
I178
tp1646
a(I130
I179
tp1647
a(I130
I180
tp1648
a(I130
I181
tp1649
a(I130
I182
tp1650
a(I130
I183
tp1651
a(I130
I184
tp1652
a(I131
I9
tp1653
a(I131
I10
tp1654
a(I131
I11
tp1655
a(I131
I12
tp1656
a(I131
I13
tp1657
a(I131
I14
tp1658
a(I131
I176
tp1659
a(I131
I177
tp1660
a(I131
I178
tp1661
a(I131
I179
tp1662
a(I131
I180
tp1663
a(I131
I181
tp1664
a(I131
I182
tp1665
a(I131
I183
tp1666
a(I131
I184
tp1667
a(I132
I9
tp1668
a(I132
I10
tp1669
a(I132
I11
tp1670
a(I132
I12
tp1671
a(I132
I13
tp1672
a(I132
I14
tp1673
a(I132
I176
tp1674
a(I132
I177
tp1675
a(I132
I178
tp1676
a(I132
I179
tp1677
a(I132
I180
tp1678
a(I132
I181
tp1679
a(I132
I182
tp1680
a(I132
I183
tp1681
a(I132
I184
tp1682
a(I133
I9
tp1683
a(I133
I10
tp1684
a(I133
I11
tp1685
a(I133
I12
tp1686
a(I133
I13
tp1687
a(I133
I14
tp1688
a(I133
I176
tp1689
a(I133
I177
tp1690
a(I133
I178
tp1691
a(I133
I179
tp1692
a(I133
I180
tp1693
a(I133
I181
tp1694
a(I133
I182
tp1695
a(I133
I183
tp1696
a(I133
I184
tp1697
a(I134
I9
tp1698
a(I134
I10
tp1699
a(I134
I11
tp1700
a(I134
I12
tp1701
a(I134
I13
tp1702
a(I134
I14
tp1703
a(I134
I176
tp1704
a(I134
I177
tp1705
a(I134
I178
tp1706
a(I134
I179
tp1707
a(I134
I180
tp1708
a(I134
I181
tp1709
a(I134
I182
tp1710
a(I134
I183
tp1711
a(I134
I184
tp1712
a(I135
I9
tp1713
a(I135
I10
tp1714
a(I135
I11
tp1715
a(I135
I12
tp1716
a(I135
I13
tp1717
a(I135
I14
tp1718
a(I135
I176
tp1719
a(I135
I177
tp1720
a(I135
I178
tp1721
a(I135
I179
tp1722
a(I135
I180
tp1723
a(I135
I181
tp1724
a(I135
I182
tp1725
a(I135
I183
tp1726
a(I135
I184
tp1727
a(I136
I9
tp1728
a(I136
I10
tp1729
a(I136
I11
tp1730
a(I136
I12
tp1731
a(I136
I13
tp1732
a(I136
I14
tp1733
a(I136
I176
tp1734
a(I136
I177
tp1735
a(I136
I178
tp1736
a(I136
I179
tp1737
a(I136
I180
tp1738
a(I136
I181
tp1739
a(I136
I182
tp1740
a(I136
I183
tp1741
a(I136
I184
tp1742
a(I137
I9
tp1743
a(I137
I10
tp1744
a(I137
I11
tp1745
a(I137
I12
tp1746
a(I137
I13
tp1747
a(I137
I14
tp1748
a(I137
I176
tp1749
a(I137
I177
tp1750
a(I137
I178
tp1751
a(I137
I179
tp1752
a(I137
I180
tp1753
a(I137
I181
tp1754
a(I137
I182
tp1755
a(I137
I183
tp1756
a(I137
I184
tp1757
a(I138
I9
tp1758
a(I138
I10
tp1759
a(I138
I11
tp1760
a(I138
I12
tp1761
a(I138
I13
tp1762
a(I138
I14
tp1763
a(I138
I176
tp1764
a(I138
I177
tp1765
a(I138
I178
tp1766
a(I138
I179
tp1767
a(I138
I180
tp1768
a(I138
I181
tp1769
a(I138
I182
tp1770
a(I138
I183
tp1771
a(I138
I184
tp1772
a(I139
I9
tp1773
a(I139
I10
tp1774
a(I139
I11
tp1775
a(I139
I12
tp1776
a(I139
I13
tp1777
a(I139
I14
tp1778
a(I139
I176
tp1779
a(I139
I177
tp1780
a(I139
I178
tp1781
a(I139
I179
tp1782
a(I139
I180
tp1783
a(I139
I181
tp1784
a(I139
I182
tp1785
a(I139
I183
tp1786
a(I139
I184
tp1787
a(I140
I9
tp1788
a(I140
I10
tp1789
a(I140
I11
tp1790
a(I140
I12
tp1791
a(I140
I13
tp1792
a(I140
I14
tp1793
a(I140
I176
tp1794
a(I140
I177
tp1795
a(I140
I178
tp1796
a(I140
I179
tp1797
a(I140
I180
tp1798
a(I140
I181
tp1799
a(I140
I182
tp1800
a(I140
I183
tp1801
a(I140
I184
tp1802
a(I141
I9
tp1803
a(I141
I10
tp1804
a(I141
I11
tp1805
a(I141
I12
tp1806
a(I141
I13
tp1807
a(I141
I14
tp1808
a(I141
I176
tp1809
a(I141
I177
tp1810
a(I141
I178
tp1811
a(I141
I179
tp1812
a(I141
I180
tp1813
a(I141
I181
tp1814
a(I141
I182
tp1815
a(I141
I183
tp1816
a(I141
I184
tp1817
a(I142
I9
tp1818
a(I142
I10
tp1819
a(I142
I11
tp1820
a(I142
I12
tp1821
a(I142
I13
tp1822
a(I142
I14
tp1823
a(I142
I176
tp1824
a(I142
I177
tp1825
a(I142
I178
tp1826
a(I142
I179
tp1827
a(I142
I180
tp1828
a(I142
I181
tp1829
a(I142
I182
tp1830
a(I142
I183
tp1831
a(I142
I184
tp1832
a(I143
I9
tp1833
a(I143
I10
tp1834
a(I143
I11
tp1835
a(I143
I12
tp1836
a(I143
I13
tp1837
a(I143
I14
tp1838
a(I143
I176
tp1839
a(I143
I177
tp1840
a(I143
I178
tp1841
a(I143
I179
tp1842
a(I143
I180
tp1843
a(I143
I181
tp1844
a(I143
I182
tp1845
a(I143
I183
tp1846
a(I143
I184
tp1847
a(I144
I9
tp1848
a(I144
I10
tp1849
a(I144
I11
tp1850
a(I144
I12
tp1851
a(I144
I13
tp1852
a(I144
I14
tp1853
a(I144
I176
tp1854
a(I144
I177
tp1855
a(I144
I178
tp1856
a(I144
I179
tp1857
a(I144
I180
tp1858
a(I144
I181
tp1859
a(I144
I182
tp1860
a(I144
I183
tp1861
a(I144
I184
tp1862
a(I145
I9
tp1863
a(I145
I10
tp1864
a(I145
I11
tp1865
a(I145
I12
tp1866
a(I145
I13
tp1867
a(I145
I14
tp1868
a(I145
I176
tp1869
a(I145
I177
tp1870
a(I145
I178
tp1871
a(I145
I179
tp1872
a(I145
I180
tp1873
a(I145
I181
tp1874
a(I145
I182
tp1875
a(I145
I183
tp1876
a(I145
I184
tp1877
a(I146
I9
tp1878
a(I146
I10
tp1879
a(I146
I11
tp1880
a(I146
I12
tp1881
a(I146
I13
tp1882
a(I146
I14
tp1883
a(I146
I176
tp1884
a(I146
I177
tp1885
a(I146
I178
tp1886
a(I146
I179
tp1887
a(I146
I180
tp1888
a(I146
I181
tp1889
a(I146
I182
tp1890
a(I146
I183
tp1891
a(I146
I184
tp1892
a(I147
I9
tp1893
a(I147
I10
tp1894
a(I147
I11
tp1895
a(I147
I12
tp1896
a(I147
I13
tp1897
a(I147
I14
tp1898
a(I147
I176
tp1899
a(I147
I177
tp1900
a(I147
I178
tp1901
a(I147
I179
tp1902
a(I147
I180
tp1903
a(I147
I181
tp1904
a(I147
I182
tp1905
a(I147
I183
tp1906
a(I147
I184
tp1907
a(I148
I9
tp1908
a(I148
I10
tp1909
a(I148
I11
tp1910
a(I148
I12
tp1911
a(I148
I13
tp1912
a(I148
I14
tp1913
a(I148
I176
tp1914
a(I148
I177
tp1915
a(I148
I178
tp1916
a(I148
I179
tp1917
a(I148
I180
tp1918
a(I148
I181
tp1919
a(I148
I182
tp1920
a(I148
I183
tp1921
a(I148
I184
tp1922
a(I149
I9
tp1923
a(I149
I10
tp1924
a(I149
I11
tp1925
a(I149
I12
tp1926
a(I149
I13
tp1927
a(I149
I14
tp1928
a(I149
I176
tp1929
a(I149
I177
tp1930
a(I149
I178
tp1931
a(I149
I179
tp1932
a(I149
I180
tp1933
a(I149
I181
tp1934
a(I149
I182
tp1935
a(I149
I183
tp1936
a(I149
I184
tp1937
a(I150
I9
tp1938
a(I150
I10
tp1939
a(I150
I11
tp1940
a(I150
I12
tp1941
a(I150
I13
tp1942
a(I150
I14
tp1943
a(I150
I176
tp1944
a(I150
I177
tp1945
a(I150
I178
tp1946
a(I150
I179
tp1947
a(I150
I180
tp1948
a(I150
I181
tp1949
a(I150
I182
tp1950
a(I150
I183
tp1951
a(I150
I184
tp1952
a(I151
I9
tp1953
a(I151
I10
tp1954
a(I151
I11
tp1955
a(I151
I12
tp1956
a(I151
I13
tp1957
a(I151
I14
tp1958
a(I151
I176
tp1959
a(I151
I177
tp1960
a(I151
I178
tp1961
a(I151
I179
tp1962
a(I151
I180
tp1963
a(I151
I181
tp1964
a(I151
I182
tp1965
a(I151
I183
tp1966
a(I151
I184
tp1967
a(I152
I9
tp1968
a(I152
I10
tp1969
a(I152
I11
tp1970
a(I152
I12
tp1971
a(I152
I13
tp1972
a(I152
I14
tp1973
a(I152
I176
tp1974
a(I152
I177
tp1975
a(I152
I178
tp1976
a(I152
I179
tp1977
a(I152
I180
tp1978
a(I152
I181
tp1979
a(I152
I182
tp1980
a(I152
I183
tp1981
a(I152
I184
tp1982
a(I153
I9
tp1983
a(I153
I10
tp1984
a(I153
I11
tp1985
a(I153
I12
tp1986
a(I153
I13
tp1987
a(I153
I14
tp1988
a(I153
I176
tp1989
a(I153
I177
tp1990
a(I153
I178
tp1991
a(I153
I179
tp1992
a(I153
I180
tp1993
a(I153
I181
tp1994
a(I153
I182
tp1995
a(I153
I183
tp1996
a(I153
I184
tp1997
a(I154
I9
tp1998
a(I154
I10
tp1999
a(I154
I11
tp2000
a(I154
I12
tp2001
a(I154
I13
tp2002
a(I154
I14
tp2003
a(I154
I176
tp2004
a(I154
I177
tp2005
a(I154
I178
tp2006
a(I154
I179
tp2007
a(I154
I180
tp2008
a(I154
I181
tp2009
a(I154
I182
tp2010
a(I154
I183
tp2011
a(I154
I184
tp2012
a(I155
I9
tp2013
a(I155
I10
tp2014
a(I155
I11
tp2015
a(I155
I12
tp2016
a(I155
I13
tp2017
a(I155
I14
tp2018
a(I155
I176
tp2019
a(I155
I177
tp2020
a(I155
I178
tp2021
a(I155
I179
tp2022
a(I155
I180
tp2023
a(I155
I181
tp2024
a(I155
I182
tp2025
a(I155
I183
tp2026
a(I155
I184
tp2027
a(I156
I9
tp2028
a(I156
I10
tp2029
a(I156
I11
tp2030
a(I156
I12
tp2031
a(I156
I13
tp2032
a(I156
I14
tp2033
a(I156
I176
tp2034
a(I156
I177
tp2035
a(I156
I178
tp2036
a(I156
I179
tp2037
a(I156
I180
tp2038
a(I156
I181
tp2039
a(I156
I182
tp2040
a(I156
I183
tp2041
a(I156
I184
tp2042
a(I157
I9
tp2043
a(I157
I10
tp2044
a(I157
I11
tp2045
a(I157
I12
tp2046
a(I157
I13
tp2047
a(I157
I14
tp2048
a(I157
I176
tp2049
a(I157
I177
tp2050
a(I157
I178
tp2051
a(I157
I179
tp2052
a(I157
I180
tp2053
a(I157
I181
tp2054
a(I157
I182
tp2055
a(I157
I183
tp2056
a(I157
I184
tp2057
a(I158
I9
tp2058
a(I158
I10
tp2059
a(I158
I11
tp2060
a(I158
I12
tp2061
a(I158
I13
tp2062
a(I158
I14
tp2063
a(I158
I176
tp2064
a(I158
I177
tp2065
a(I158
I178
tp2066
a(I158
I179
tp2067
a(I158
I180
tp2068
a(I158
I181
tp2069
a(I158
I182
tp2070
a(I158
I183
tp2071
a(I158
I184
tp2072
a(I159
I9
tp2073
a(I159
I10
tp2074
a(I159
I11
tp2075
a(I159
I12
tp2076
a(I159
I13
tp2077
a(I159
I14
tp2078
a(I159
I176
tp2079
a(I159
I177
tp2080
a(I159
I178
tp2081
a(I159
I179
tp2082
a(I159
I180
tp2083
a(I159
I181
tp2084
a(I159
I182
tp2085
a(I159
I183
tp2086
a(I159
I184
tp2087
a(I160
I9
tp2088
a(I160
I10
tp2089
a(I160
I11
tp2090
a(I160
I12
tp2091
a(I160
I13
tp2092
a(I160
I14
tp2093
a(I160
I176
tp2094
a(I160
I177
tp2095
a(I160
I178
tp2096
a(I160
I179
tp2097
a(I160
I180
tp2098
a(I160
I181
tp2099
a(I160
I182
tp2100
a(I160
I183
tp2101
a(I160
I184
tp2102
a(I161
I9
tp2103
a(I161
I10
tp2104
a(I161
I11
tp2105
a(I161
I12
tp2106
a(I161
I13
tp2107
a(I161
I14
tp2108
a(I161
I176
tp2109
a(I161
I177
tp2110
a(I161
I178
tp2111
a(I161
I179
tp2112
a(I161
I180
tp2113
a(I161
I181
tp2114
a(I161
I182
tp2115
a(I161
I183
tp2116
a(I161
I184
tp2117
a(I162
I9
tp2118
a(I162
I10
tp2119
a(I162
I11
tp2120
a(I162
I12
tp2121
a(I162
I13
tp2122
a(I162
I14
tp2123
a(I162
I176
tp2124
a(I162
I177
tp2125
a(I162
I178
tp2126
a(I162
I179
tp2127
a(I162
I180
tp2128
a(I162
I181
tp2129
a(I162
I182
tp2130
a(I162
I183
tp2131
a(I162
I184
tp2132
a(I163
I9
tp2133
a(I163
I10
tp2134
a(I163
I11
tp2135
a(I163
I12
tp2136
a(I163
I13
tp2137
a(I163
I14
tp2138
a(I163
I176
tp2139
a(I163
I177
tp2140
a(I163
I178
tp2141
a(I163
I179
tp2142
a(I163
I180
tp2143
a(I163
I181
tp2144
a(I163
I182
tp2145
a(I163
I183
tp2146
a(I163
I184
tp2147
a(I164
I9
tp2148
a(I164
I10
tp2149
a(I164
I11
tp2150
a(I164
I12
tp2151
a(I164
I13
tp2152
a(I164
I14
tp2153
a(I164
I176
tp2154
a(I164
I177
tp2155
a(I164
I178
tp2156
a(I164
I179
tp2157
a(I164
I180
tp2158
a(I164
I181
tp2159
a(I164
I182
tp2160
a(I164
I183
tp2161
a(I164
I184
tp2162
a(I165
I9
tp2163
a(I165
I10
tp2164
a(I165
I11
tp2165
a(I165
I12
tp2166
a(I165
I13
tp2167
a(I165
I14
tp2168
a(I165
I176
tp2169
a(I165
I177
tp2170
a(I165
I178
tp2171
a(I165
I179
tp2172
a(I165
I180
tp2173
a(I165
I181
tp2174
a(I165
I182
tp2175
a(I165
I183
tp2176
a(I165
I184
tp2177
a(I166
I9
tp2178
a(I166
I10
tp2179
a(I166
I11
tp2180
a(I166
I12
tp2181
a(I166
I13
tp2182
a(I166
I14
tp2183
a(I166
I176
tp2184
a(I166
I177
tp2185
a(I166
I178
tp2186
a(I166
I179
tp2187
a(I166
I180
tp2188
a(I166
I181
tp2189
a(I166
I182
tp2190
a(I166
I183
tp2191
a(I166
I184
tp2192
a(I167
I9
tp2193
a(I167
I10
tp2194
a(I167
I11
tp2195
a(I167
I12
tp2196
a(I167
I13
tp2197
a(I167
I14
tp2198
a(I167
I176
tp2199
a(I167
I177
tp2200
a(I167
I178
tp2201
a(I167
I179
tp2202
a(I167
I180
tp2203
a(I167
I181
tp2204
a(I167
I182
tp2205
a(I167
I183
tp2206
a(I167
I184
tp2207
a(I168
I9
tp2208
a(I168
I10
tp2209
a(I168
I11
tp2210
a(I168
I12
tp2211
a(I168
I13
tp2212
a(I168
I14
tp2213
a(I168
I176
tp2214
a(I168
I177
tp2215
a(I168
I178
tp2216
a(I168
I179
tp2217
a(I168
I180
tp2218
a(I168
I181
tp2219
a(I168
I182
tp2220
a(I168
I183
tp2221
a(I168
I184
tp2222
a(I169
I9
tp2223
a(I169
I10
tp2224
a(I169
I11
tp2225
a(I169
I12
tp2226
a(I169
I13
tp2227
a(I169
I14
tp2228
a(I169
I176
tp2229
a(I169
I177
tp2230
a(I169
I178
tp2231
a(I169
I179
tp2232
a(I169
I180
tp2233
a(I169
I181
tp2234
a(I169
I182
tp2235
a(I169
I183
tp2236
a(I169
I184
tp2237
a(I170
I9
tp2238
a(I170
I10
tp2239
a(I170
I11
tp2240
a(I170
I12
tp2241
a(I170
I13
tp2242
a(I170
I14
tp2243
a(I170
I176
tp2244
a(I170
I177
tp2245
a(I170
I178
tp2246
a(I170
I179
tp2247
a(I170
I180
tp2248
a(I170
I181
tp2249
a(I170
I182
tp2250
a(I170
I183
tp2251
a(I170
I184
tp2252
a(I171
I9
tp2253
a(I171
I10
tp2254
a(I171
I11
tp2255
a(I171
I12
tp2256
a(I171
I13
tp2257
a(I171
I14
tp2258
a(I171
I176
tp2259
a(I171
I177
tp2260
a(I171
I178
tp2261
a(I171
I179
tp2262
a(I171
I180
tp2263
a(I171
I181
tp2264
a(I171
I182
tp2265
a(I171
I183
tp2266
a(I171
I184
tp2267
a(I172
I9
tp2268
a(I172
I10
tp2269
a(I172
I11
tp2270
a(I172
I12
tp2271
a(I172
I13
tp2272
a(I172
I14
tp2273
a(I172
I176
tp2274
a(I172
I177
tp2275
a(I172
I178
tp2276
a(I172
I179
tp2277
a(I172
I180
tp2278
a(I172
I181
tp2279
a(I172
I182
tp2280
a(I172
I183
tp2281
a(I172
I184
tp2282
a(I173
I9
tp2283
a(I173
I10
tp2284
a(I173
I11
tp2285
a(I173
I12
tp2286
a(I173
I13
tp2287
a(I173
I14
tp2288
a(I173
I176
tp2289
a(I173
I177
tp2290
a(I173
I178
tp2291
a(I173
I179
tp2292
a(I173
I180
tp2293
a(I173
I181
tp2294
a(I173
I182
tp2295
a(I173
I183
tp2296
a(I173
I184
tp2297
a(I174
I9
tp2298
a(I174
I10
tp2299
a(I174
I11
tp2300
a(I174
I12
tp2301
a(I174
I13
tp2302
a(I174
I14
tp2303
a(I174
I176
tp2304
a(I174
I177
tp2305
a(I174
I178
tp2306
a(I174
I179
tp2307
a(I174
I180
tp2308
a(I174
I181
tp2309
a(I174
I182
tp2310
a(I174
I183
tp2311
a(I174
I184
tp2312
a(I175
I9
tp2313
a(I175
I10
tp2314
a(I175
I11
tp2315
a(I175
I12
tp2316
a(I175
I13
tp2317
a(I175
I14
tp2318
a(I175
I176
tp2319
a(I175
I177
tp2320
a(I175
I178
tp2321
a(I175
I179
tp2322
a(I175
I180
tp2323
a(I175
I181
tp2324
a(I175
I182
tp2325
a(I175
I183
tp2326
a(I175
I184
tp2327
a(I176
I9
tp2328
a(I176
I10
tp2329
a(I176
I11
tp2330
a(I176
I12
tp2331
a(I176
I13
tp2332
a(I176
I14
tp2333
a(I176
I15
tp2334
a(I176
I16
tp2335
a(I176
I17
tp2336
a(I176
I18
tp2337
a(I176
I19
tp2338
a(I176
I20
tp2339
a(I176
I21
tp2340
a(I176
I22
tp2341
a(I176
I23
tp2342
a(I176
I24
tp2343
a(I176
I25
tp2344
a(I176
I26
tp2345
a(I176
I27
tp2346
a(I176
I28
tp2347
a(I176
I29
tp2348
a(I176
I30
tp2349
a(I176
I31
tp2350
a(I176
I32
tp2351
a(I176
I33
tp2352
a(I176
I34
tp2353
a(I176
I35
tp2354
a(I176
I36
tp2355
a(I176
I37
tp2356
a(I176
I38
tp2357
a(I176
I39
tp2358
a(I176
I40
tp2359
a(I176
I41
tp2360
a(I176
I42
tp2361
a(I176
I43
tp2362
a(I176
I44
tp2363
a(I176
I45
tp2364
a(I176
I46
tp2365
a(I176
I47
tp2366
a(I176
I48
tp2367
a(I176
I49
tp2368
a(I176
I50
tp2369
a(I176
I51
tp2370
a(I176
I52
tp2371
a(I176
I53
tp2372
a(I176
I54
tp2373
a(I176
I55
tp2374
a(I176
I56
tp2375
a(I176
I57
tp2376
a(I176
I58
tp2377
a(I176
I59
tp2378
a(I176
I60
tp2379
a(I176
I61
tp2380
a(I176
I62
tp2381
a(I176
I63
tp2382
a(I176
I64
tp2383
a(I176
I65
tp2384
a(I176
I66
tp2385
a(I176
I67
tp2386
a(I176
I68
tp2387
a(I176
I69
tp2388
a(I176
I70
tp2389
a(I176
I71
tp2390
a(I176
I72
tp2391
a(I176
I73
tp2392
a(I176
I74
tp2393
a(I176
I75
tp2394
a(I176
I76
tp2395
a(I176
I77
tp2396
a(I176
I78
tp2397
a(I176
I79
tp2398
a(I176
I80
tp2399
a(I176
I81
tp2400
a(I176
I82
tp2401
a(I176
I83
tp2402
a(I176
I84
tp2403
a(I176
I85
tp2404
a(I176
I86
tp2405
a(I176
I87
tp2406
a(I176
I88
tp2407
a(I176
I89
tp2408
a(I176
I90
tp2409
a(I176
I91
tp2410
a(I176
I92
tp2411
a(I176
I93
tp2412
a(I176
I94
tp2413
a(I176
I95
tp2414
a(I176
I96
tp2415
a(I176
I97
tp2416
a(I176
I98
tp2417
a(I176
I99
tp2418
a(I176
I100
tp2419
a(I176
I101
tp2420
a(I176
I102
tp2421
a(I176
I103
tp2422
a(I176
I104
tp2423
a(I176
I105
tp2424
a(I176
I106
tp2425
a(I176
I107
tp2426
a(I176
I108
tp2427
a(I176
I109
tp2428
a(I176
I110
tp2429
a(I176
I111
tp2430
a(I176
I112
tp2431
a(I176
I113
tp2432
a(I176
I114
tp2433
a(I176
I115
tp2434
a(I176
I116
tp2435
a(I176
I117
tp2436
a(I176
I118
tp2437
a(I176
I119
tp2438
a(I176
I120
tp2439
a(I176
I121
tp2440
a(I176
I122
tp2441
a(I176
I123
tp2442
a(I176
I124
tp2443
a(I176
I125
tp2444
a(I176
I126
tp2445
a(I176
I127
tp2446
a(I176
I128
tp2447
a(I176
I129
tp2448
a(I176
I130
tp2449
a(I176
I131
tp2450
a(I176
I132
tp2451
a(I176
I133
tp2452
a(I176
I134
tp2453
a(I176
I135
tp2454
a(I176
I136
tp2455
a(I176
I137
tp2456
a(I176
I138
tp2457
a(I176
I139
tp2458
a(I176
I140
tp2459
a(I176
I141
tp2460
a(I176
I142
tp2461
a(I176
I143
tp2462
a(I176
I144
tp2463
a(I176
I145
tp2464
a(I176
I146
tp2465
a(I176
I147
tp2466
a(I176
I148
tp2467
a(I176
I149
tp2468
a(I176
I150
tp2469
a(I176
I151
tp2470
a(I176
I152
tp2471
a(I176
I153
tp2472
a(I176
I154
tp2473
a(I176
I155
tp2474
a(I176
I156
tp2475
a(I176
I157
tp2476
a(I176
I158
tp2477
a(I176
I159
tp2478
a(I176
I160
tp2479
a(I176
I161
tp2480
a(I176
I162
tp2481
a(I176
I163
tp2482
a(I176
I164
tp2483
a(I176
I165
tp2484
a(I176
I166
tp2485
a(I176
I167
tp2486
a(I176
I168
tp2487
a(I176
I169
tp2488
a(I176
I170
tp2489
a(I176
I171
tp2490
a(I176
I172
tp2491
a(I176
I173
tp2492
a(I176
I174
tp2493
a(I176
I175
tp2494
a(I176
I176
tp2495
a(I176
I177
tp2496
a(I176
I178
tp2497
a(I176
I179
tp2498
a(I176
I180
tp2499
a(I176
I181
tp2500
a(I176
I182
tp2501
a(I176
I183
tp2502
a(I176
I184
tp2503
a(I177
I9
tp2504
a(I177
I10
tp2505
a(I177
I11
tp2506
a(I177
I12
tp2507
a(I177
I13
tp2508
a(I177
I14
tp2509
a(I177
I15
tp2510
a(I177
I16
tp2511
a(I177
I17
tp2512
a(I177
I18
tp2513
a(I177
I19
tp2514
a(I177
I20
tp2515
a(I177
I21
tp2516
a(I177
I22
tp2517
a(I177
I23
tp2518
a(I177
I24
tp2519
a(I177
I25
tp2520
a(I177
I26
tp2521
a(I177
I27
tp2522
a(I177
I28
tp2523
a(I177
I29
tp2524
a(I177
I30
tp2525
a(I177
I31
tp2526
a(I177
I32
tp2527
a(I177
I33
tp2528
a(I177
I34
tp2529
a(I177
I35
tp2530
a(I177
I36
tp2531
a(I177
I37
tp2532
a(I177
I38
tp2533
a(I177
I39
tp2534
a(I177
I40
tp2535
a(I177
I41
tp2536
a(I177
I42
tp2537
a(I177
I43
tp2538
a(I177
I44
tp2539
a(I177
I45
tp2540
a(I177
I46
tp2541
a(I177
I47
tp2542
a(I177
I48
tp2543
a(I177
I49
tp2544
a(I177
I50
tp2545
a(I177
I51
tp2546
a(I177
I52
tp2547
a(I177
I53
tp2548
a(I177
I54
tp2549
a(I177
I55
tp2550
a(I177
I56
tp2551
a(I177
I57
tp2552
a(I177
I58
tp2553
a(I177
I59
tp2554
a(I177
I60
tp2555
a(I177
I61
tp2556
a(I177
I62
tp2557
a(I177
I63
tp2558
a(I177
I64
tp2559
a(I177
I65
tp2560
a(I177
I66
tp2561
a(I177
I67
tp2562
a(I177
I68
tp2563
a(I177
I69
tp2564
a(I177
I70
tp2565
a(I177
I71
tp2566
a(I177
I72
tp2567
a(I177
I73
tp2568
a(I177
I74
tp2569
a(I177
I75
tp2570
a(I177
I76
tp2571
a(I177
I77
tp2572
a(I177
I78
tp2573
a(I177
I79
tp2574
a(I177
I80
tp2575
a(I177
I81
tp2576
a(I177
I82
tp2577
a(I177
I83
tp2578
a(I177
I84
tp2579
a(I177
I85
tp2580
a(I177
I86
tp2581
a(I177
I87
tp2582
a(I177
I88
tp2583
a(I177
I89
tp2584
a(I177
I90
tp2585
a(I177
I91
tp2586
a(I177
I92
tp2587
a(I177
I93
tp2588
a(I177
I94
tp2589
a(I177
I95
tp2590
a(I177
I96
tp2591
a(I177
I97
tp2592
a(I177
I98
tp2593
a(I177
I99
tp2594
a(I177
I100
tp2595
a(I177
I101
tp2596
a(I177
I102
tp2597
a(I177
I103
tp2598
a(I177
I104
tp2599
a(I177
I105
tp2600
a(I177
I106
tp2601
a(I177
I107
tp2602
a(I177
I108
tp2603
a(I177
I109
tp2604
a(I177
I110
tp2605
a(I177
I111
tp2606
a(I177
I112
tp2607
a(I177
I113
tp2608
a(I177
I114
tp2609
a(I177
I115
tp2610
a(I177
I116
tp2611
a(I177
I117
tp2612
a(I177
I118
tp2613
a(I177
I119
tp2614
a(I177
I120
tp2615
a(I177
I121
tp2616
a(I177
I122
tp2617
a(I177
I123
tp2618
a(I177
I124
tp2619
a(I177
I125
tp2620
a(I177
I126
tp2621
a(I177
I127
tp2622
a(I177
I128
tp2623
a(I177
I129
tp2624
a(I177
I130
tp2625
a(I177
I131
tp2626
a(I177
I132
tp2627
a(I177
I133
tp2628
a(I177
I134
tp2629
a(I177
I135
tp2630
a(I177
I136
tp2631
a(I177
I137
tp2632
a(I177
I138
tp2633
a(I177
I139
tp2634
a(I177
I140
tp2635
a(I177
I141
tp2636
a(I177
I142
tp2637
a(I177
I143
tp2638
a(I177
I144
tp2639
a(I177
I145
tp2640
a(I177
I146
tp2641
a(I177
I147
tp2642
a(I177
I148
tp2643
a(I177
I149
tp2644
a(I177
I150
tp2645
a(I177
I151
tp2646
a(I177
I152
tp2647
a(I177
I153
tp2648
a(I177
I154
tp2649
a(I177
I155
tp2650
a(I177
I156
tp2651
a(I177
I157
tp2652
a(I177
I158
tp2653
a(I177
I159
tp2654
a(I177
I160
tp2655
a(I177
I161
tp2656
a(I177
I162
tp2657
a(I177
I163
tp2658
a(I177
I164
tp2659
a(I177
I165
tp2660
a(I177
I166
tp2661
a(I177
I167
tp2662
a(I177
I168
tp2663
a(I177
I169
tp2664
a(I177
I170
tp2665
a(I177
I171
tp2666
a(I177
I172
tp2667
a(I177
I173
tp2668
a(I177
I174
tp2669
a(I177
I175
tp2670
a(I177
I176
tp2671
a(I177
I177
tp2672
a(I177
I178
tp2673
a(I177
I179
tp2674
a(I177
I180
tp2675
a(I177
I181
tp2676
a(I177
I182
tp2677
a(I177
I183
tp2678
a(I177
I184
tp2679
a(I178
I9
tp2680
a(I178
I10
tp2681
a(I178
I11
tp2682
a(I178
I12
tp2683
a(I178
I13
tp2684
a(I178
I14
tp2685
a(I178
I15
tp2686
a(I178
I16
tp2687
a(I178
I17
tp2688
a(I178
I18
tp2689
a(I178
I19
tp2690
a(I178
I20
tp2691
a(I178
I21
tp2692
a(I178
I22
tp2693
a(I178
I23
tp2694
a(I178
I24
tp2695
a(I178
I25
tp2696
a(I178
I26
tp2697
a(I178
I27
tp2698
a(I178
I28
tp2699
a(I178
I29
tp2700
a(I178
I30
tp2701
a(I178
I31
tp2702
a(I178
I32
tp2703
a(I178
I33
tp2704
a(I178
I34
tp2705
a(I178
I35
tp2706
a(I178
I36
tp2707
a(I178
I37
tp2708
a(I178
I38
tp2709
a(I178
I39
tp2710
a(I178
I40
tp2711
a(I178
I41
tp2712
a(I178
I42
tp2713
a(I178
I43
tp2714
a(I178
I44
tp2715
a(I178
I45
tp2716
a(I178
I46
tp2717
a(I178
I47
tp2718
a(I178
I48
tp2719
a(I178
I49
tp2720
a(I178
I50
tp2721
a(I178
I51
tp2722
a(I178
I52
tp2723
a(I178
I53
tp2724
a(I178
I54
tp2725
a(I178
I55
tp2726
a(I178
I56
tp2727
a(I178
I57
tp2728
a(I178
I58
tp2729
a(I178
I59
tp2730
a(I178
I60
tp2731
a(I178
I61
tp2732
a(I178
I62
tp2733
a(I178
I63
tp2734
a(I178
I64
tp2735
a(I178
I65
tp2736
a(I178
I66
tp2737
a(I178
I67
tp2738
a(I178
I68
tp2739
a(I178
I69
tp2740
a(I178
I70
tp2741
a(I178
I71
tp2742
a(I178
I72
tp2743
a(I178
I73
tp2744
a(I178
I74
tp2745
a(I178
I75
tp2746
a(I178
I76
tp2747
a(I178
I77
tp2748
a(I178
I78
tp2749
a(I178
I79
tp2750
a(I178
I80
tp2751
a(I178
I81
tp2752
a(I178
I82
tp2753
a(I178
I83
tp2754
a(I178
I84
tp2755
a(I178
I85
tp2756
a(I178
I86
tp2757
a(I178
I87
tp2758
a(I178
I88
tp2759
a(I178
I89
tp2760
a(I178
I90
tp2761
a(I178
I91
tp2762
a(I178
I92
tp2763
a(I178
I93
tp2764
a(I178
I94
tp2765
a(I178
I95
tp2766
a(I178
I96
tp2767
a(I178
I97
tp2768
a(I178
I98
tp2769
a(I178
I99
tp2770
a(I178
I100
tp2771
a(I178
I101
tp2772
a(I178
I102
tp2773
a(I178
I103
tp2774
a(I178
I104
tp2775
a(I178
I105
tp2776
a(I178
I106
tp2777
a(I178
I107
tp2778
a(I178
I108
tp2779
a(I178
I109
tp2780
a(I178
I110
tp2781
a(I178
I111
tp2782
a(I178
I112
tp2783
a(I178
I113
tp2784
a(I178
I114
tp2785
a(I178
I115
tp2786
a(I178
I116
tp2787
a(I178
I117
tp2788
a(I178
I118
tp2789
a(I178
I119
tp2790
a(I178
I120
tp2791
a(I178
I121
tp2792
a(I178
I122
tp2793
a(I178
I123
tp2794
a(I178
I124
tp2795
a(I178
I125
tp2796
a(I178
I126
tp2797
a(I178
I127
tp2798
a(I178
I128
tp2799
a(I178
I129
tp2800
a(I178
I130
tp2801
a(I178
I131
tp2802
a(I178
I132
tp2803
a(I178
I133
tp2804
a(I178
I134
tp2805
a(I178
I135
tp2806
a(I178
I136
tp2807
a(I178
I137
tp2808
a(I178
I138
tp2809
a(I178
I139
tp2810
a(I178
I140
tp2811
a(I178
I141
tp2812
a(I178
I142
tp2813
a(I178
I143
tp2814
a(I178
I144
tp2815
a(I178
I145
tp2816
a(I178
I146
tp2817
a(I178
I147
tp2818
a(I178
I148
tp2819
a(I178
I149
tp2820
a(I178
I150
tp2821
a(I178
I151
tp2822
a(I178
I152
tp2823
a(I178
I153
tp2824
a(I178
I154
tp2825
a(I178
I155
tp2826
a(I178
I156
tp2827
a(I178
I157
tp2828
a(I178
I158
tp2829
a(I178
I159
tp2830
a(I178
I160
tp2831
a(I178
I161
tp2832
a(I178
I162
tp2833
a(I178
I163
tp2834
a(I178
I164
tp2835
a(I178
I165
tp2836
a(I178
I166
tp2837
a(I178
I167
tp2838
a(I178
I168
tp2839
a(I178
I169
tp2840
a(I178
I170
tp2841
a(I178
I171
tp2842
a(I178
I172
tp2843
a(I178
I173
tp2844
a(I178
I174
tp2845
a(I178
I175
tp2846
a(I178
I176
tp2847
a(I178
I177
tp2848
a(I178
I178
tp2849
a(I178
I179
tp2850
a(I178
I180
tp2851
a(I178
I181
tp2852
a(I178
I182
tp2853
a(I178
I183
tp2854
a(I178
I184
tp2855
a(I179
I9
tp2856
a(I179
I10
tp2857
a(I179
I11
tp2858
a(I179
I12
tp2859
a(I179
I13
tp2860
a(I179
I14
tp2861
a(I179
I15
tp2862
a(I179
I16
tp2863
a(I179
I17
tp2864
a(I179
I18
tp2865
a(I179
I19
tp2866
a(I179
I20
tp2867
a(I179
I21
tp2868
a(I179
I22
tp2869
a(I179
I23
tp2870
a(I179
I24
tp2871
a(I179
I25
tp2872
a(I179
I26
tp2873
a(I179
I27
tp2874
a(I179
I28
tp2875
a(I179
I29
tp2876
a(I179
I30
tp2877
a(I179
I31
tp2878
a(I179
I32
tp2879
a(I179
I33
tp2880
a(I179
I34
tp2881
a(I179
I35
tp2882
a(I179
I36
tp2883
a(I179
I37
tp2884
a(I179
I38
tp2885
a(I179
I39
tp2886
a(I179
I40
tp2887
a(I179
I41
tp2888
a(I179
I42
tp2889
a(I179
I43
tp2890
a(I179
I44
tp2891
a(I179
I45
tp2892
a(I179
I46
tp2893
a(I179
I47
tp2894
a(I179
I48
tp2895
a(I179
I49
tp2896
a(I179
I50
tp2897
a(I179
I51
tp2898
a(I179
I52
tp2899
a(I179
I53
tp2900
a(I179
I54
tp2901
a(I179
I55
tp2902
a(I179
I56
tp2903
a(I179
I57
tp2904
a(I179
I58
tp2905
a(I179
I59
tp2906
a(I179
I60
tp2907
a(I179
I61
tp2908
a(I179
I62
tp2909
a(I179
I63
tp2910
a(I179
I64
tp2911
a(I179
I65
tp2912
a(I179
I66
tp2913
a(I179
I67
tp2914
a(I179
I68
tp2915
a(I179
I69
tp2916
a(I179
I70
tp2917
a(I179
I71
tp2918
a(I179
I72
tp2919
a(I179
I73
tp2920
a(I179
I74
tp2921
a(I179
I75
tp2922
a(I179
I76
tp2923
a(I179
I77
tp2924
a(I179
I78
tp2925
a(I179
I79
tp2926
a(I179
I80
tp2927
a(I179
I81
tp2928
a(I179
I82
tp2929
a(I179
I83
tp2930
a(I179
I84
tp2931
a(I179
I85
tp2932
a(I179
I86
tp2933
a(I179
I87
tp2934
a(I179
I88
tp2935
a(I179
I89
tp2936
a(I179
I90
tp2937
a(I179
I91
tp2938
a(I179
I92
tp2939
a(I179
I93
tp2940
a(I179
I94
tp2941
a(I179
I95
tp2942
a(I179
I96
tp2943
a(I179
I97
tp2944
a(I179
I98
tp2945
a(I179
I99
tp2946
a(I179
I100
tp2947
a(I179
I101
tp2948
a(I179
I102
tp2949
a(I179
I103
tp2950
a(I179
I104
tp2951
a(I179
I105
tp2952
a(I179
I106
tp2953
a(I179
I107
tp2954
a(I179
I108
tp2955
a(I179
I109
tp2956
a(I179
I110
tp2957
a(I179
I111
tp2958
a(I179
I112
tp2959
a(I179
I113
tp2960
a(I179
I114
tp2961
a(I179
I115
tp2962
a(I179
I116
tp2963
a(I179
I117
tp2964
a(I179
I118
tp2965
a(I179
I119
tp2966
a(I179
I120
tp2967
a(I179
I121
tp2968
a(I179
I122
tp2969
a(I179
I123
tp2970
a(I179
I124
tp2971
a(I179
I125
tp2972
a(I179
I126
tp2973
a(I179
I127
tp2974
a(I179
I128
tp2975
a(I179
I129
tp2976
a(I179
I130
tp2977
a(I179
I131
tp2978
a(I179
I132
tp2979
a(I179
I133
tp2980
a(I179
I134
tp2981
a(I179
I135
tp2982
a(I179
I136
tp2983
a(I179
I137
tp2984
a(I179
I138
tp2985
a(I179
I139
tp2986
a(I179
I140
tp2987
a(I179
I141
tp2988
a(I179
I142
tp2989
a(I179
I143
tp2990
a(I179
I144
tp2991
a(I179
I145
tp2992
a(I179
I146
tp2993
a(I179
I147
tp2994
a(I179
I148
tp2995
a(I179
I149
tp2996
a(I179
I150
tp2997
a(I179
I151
tp2998
a(I179
I152
tp2999
a(I179
I153
tp3000
a(I179
I154
tp3001
a(I179
I155
tp3002
a(I179
I156
tp3003
a(I179
I157
tp3004
a(I179
I158
tp3005
a(I179
I159
tp3006
a(I179
I160
tp3007
a(I179
I161
tp3008
a(I179
I162
tp3009
a(I179
I163
tp3010
a(I179
I164
tp3011
a(I179
I165
tp3012
a(I179
I166
tp3013
a(I179
I167
tp3014
a(I179
I168
tp3015
a(I179
I169
tp3016
a(I179
I170
tp3017
a(I179
I171
tp3018
a(I179
I172
tp3019
a(I179
I173
tp3020
a(I179
I174
tp3021
a(I179
I175
tp3022
a(I179
I176
tp3023
a(I179
I177
tp3024
a(I179
I178
tp3025
a(I179
I179
tp3026
a(I179
I180
tp3027
a(I179
I181
tp3028
a(I179
I182
tp3029
a(I179
I183
tp3030
a(I179
I184
tp3031
a(I180
I9
tp3032
a(I180
I10
tp3033
a(I180
I11
tp3034
a(I180
I12
tp3035
a(I180
I13
tp3036
a(I180
I14
tp3037
a(I180
I15
tp3038
a(I180
I16
tp3039
a(I180
I17
tp3040
a(I180
I18
tp3041
a(I180
I19
tp3042
a(I180
I20
tp3043
a(I180
I21
tp3044
a(I180
I22
tp3045
a(I180
I23
tp3046
a(I180
I24
tp3047
a(I180
I25
tp3048
a(I180
I26
tp3049
a(I180
I27
tp3050
a(I180
I28
tp3051
a(I180
I29
tp3052
a(I180
I30
tp3053
a(I180
I31
tp3054
a(I180
I32
tp3055
a(I180
I33
tp3056
a(I180
I34
tp3057
a(I180
I35
tp3058
a(I180
I36
tp3059
a(I180
I37
tp3060
a(I180
I38
tp3061
a(I180
I39
tp3062
a(I180
I40
tp3063
a(I180
I41
tp3064
a(I180
I42
tp3065
a(I180
I43
tp3066
a(I180
I44
tp3067
a(I180
I45
tp3068
a(I180
I46
tp3069
a(I180
I47
tp3070
a(I180
I48
tp3071
a(I180
I49
tp3072
a(I180
I50
tp3073
a(I180
I51
tp3074
a(I180
I52
tp3075
a(I180
I53
tp3076
a(I180
I54
tp3077
a(I180
I55
tp3078
a(I180
I56
tp3079
a(I180
I57
tp3080
a(I180
I58
tp3081
a(I180
I59
tp3082
a(I180
I60
tp3083
a(I180
I61
tp3084
a(I180
I62
tp3085
a(I180
I63
tp3086
a(I180
I64
tp3087
a(I180
I65
tp3088
a(I180
I66
tp3089
a(I180
I67
tp3090
a(I180
I68
tp3091
a(I180
I69
tp3092
a(I180
I70
tp3093
a(I180
I71
tp3094
a(I180
I72
tp3095
a(I180
I73
tp3096
a(I180
I74
tp3097
a(I180
I75
tp3098
a(I180
I76
tp3099
a(I180
I77
tp3100
a(I180
I78
tp3101
a(I180
I79
tp3102
a(I180
I80
tp3103
a(I180
I81
tp3104
a(I180
I82
tp3105
a(I180
I83
tp3106
a(I180
I84
tp3107
a(I180
I85
tp3108
a(I180
I86
tp3109
a(I180
I87
tp3110
a(I180
I88
tp3111
a(I180
I89
tp3112
a(I180
I90
tp3113
a(I180
I91
tp3114
a(I180
I92
tp3115
a(I180
I93
tp3116
a(I180
I94
tp3117
a(I180
I95
tp3118
a(I180
I96
tp3119
a(I180
I97
tp3120
a(I180
I98
tp3121
a(I180
I99
tp3122
a(I180
I100
tp3123
a(I180
I101
tp3124
a(I180
I102
tp3125
a(I180
I103
tp3126
a(I180
I104
tp3127
a(I180
I105
tp3128
a(I180
I106
tp3129
a(I180
I107
tp3130
a(I180
I108
tp3131
a(I180
I109
tp3132
a(I180
I110
tp3133
a(I180
I111
tp3134
a(I180
I112
tp3135
a(I180
I113
tp3136
a(I180
I114
tp3137
a(I180
I115
tp3138
a(I180
I116
tp3139
a(I180
I117
tp3140
a(I180
I118
tp3141
a(I180
I119
tp3142
a(I180
I120
tp3143
a(I180
I121
tp3144
a(I180
I122
tp3145
a(I180
I123
tp3146
a(I180
I124
tp3147
a(I180
I125
tp3148
a(I180
I126
tp3149
a(I180
I127
tp3150
a(I180
I128
tp3151
a(I180
I129
tp3152
a(I180
I130
tp3153
a(I180
I131
tp3154
a(I180
I132
tp3155
a(I180
I133
tp3156
a(I180
I134
tp3157
a(I180
I135
tp3158
a(I180
I136
tp3159
a(I180
I137
tp3160
a(I180
I138
tp3161
a(I180
I139
tp3162
a(I180
I140
tp3163
a(I180
I141
tp3164
a(I180
I142
tp3165
a(I180
I143
tp3166
a(I180
I144
tp3167
a(I180
I145
tp3168
a(I180
I146
tp3169
a(I180
I147
tp3170
a(I180
I148
tp3171
a(I180
I149
tp3172
a(I180
I150
tp3173
a(I180
I151
tp3174
a(I180
I152
tp3175
a(I180
I153
tp3176
a(I180
I154
tp3177
a(I180
I155
tp3178
a(I180
I156
tp3179
a(I180
I157
tp3180
a(I180
I158
tp3181
a(I180
I159
tp3182
a(I180
I160
tp3183
a(I180
I161
tp3184
a(I180
I162
tp3185
a(I180
I163
tp3186
a(I180
I164
tp3187
a(I180
I165
tp3188
a(I180
I166
tp3189
a(I180
I167
tp3190
a(I180
I168
tp3191
a(I180
I169
tp3192
a(I180
I170
tp3193
a(I180
I171
tp3194
a(I180
I172
tp3195
a(I180
I173
tp3196
a(I180
I174
tp3197
a(I180
I175
tp3198
a(I180
I176
tp3199
a(I180
I177
tp3200
a(I180
I178
tp3201
a(I180
I179
tp3202
a(I180
I180
tp3203
a(I180
I181
tp3204
a(I180
I182
tp3205
a(I180
I183
tp3206
a(I180
I184
tp3207
a(I181
I9
tp3208
a(I181
I10
tp3209
a(I181
I11
tp3210
a(I181
I12
tp3211
a(I181
I13
tp3212
a(I181
I14
tp3213
a(I181
I15
tp3214
a(I181
I16
tp3215
a(I181
I17
tp3216
a(I181
I18
tp3217
a(I181
I19
tp3218
a(I181
I20
tp3219
a(I181
I21
tp3220
a(I181
I22
tp3221
a(I181
I23
tp3222
a(I181
I24
tp3223
a(I181
I25
tp3224
a(I181
I26
tp3225
a(I181
I27
tp3226
a(I181
I28
tp3227
a(I181
I29
tp3228
a(I181
I30
tp3229
a(I181
I31
tp3230
a(I181
I32
tp3231
a(I181
I33
tp3232
a(I181
I34
tp3233
a(I181
I35
tp3234
a(I181
I36
tp3235
a(I181
I37
tp3236
a(I181
I38
tp3237
a(I181
I39
tp3238
a(I181
I40
tp3239
a(I181
I41
tp3240
a(I181
I42
tp3241
a(I181
I43
tp3242
a(I181
I44
tp3243
a(I181
I45
tp3244
a(I181
I46
tp3245
a(I181
I47
tp3246
a(I181
I48
tp3247
a(I181
I49
tp3248
a(I181
I50
tp3249
a(I181
I51
tp3250
a(I181
I52
tp3251
a(I181
I53
tp3252
a(I181
I54
tp3253
a(I181
I55
tp3254
a(I181
I56
tp3255
a(I181
I57
tp3256
a(I181
I58
tp3257
a(I181
I59
tp3258
a(I181
I60
tp3259
a(I181
I61
tp3260
a(I181
I62
tp3261
a(I181
I63
tp3262
a(I181
I64
tp3263
a(I181
I65
tp3264
a(I181
I66
tp3265
a(I181
I67
tp3266
a(I181
I68
tp3267
a(I181
I69
tp3268
a(I181
I70
tp3269
a(I181
I71
tp3270
a(I181
I72
tp3271
a(I181
I73
tp3272
a(I181
I74
tp3273
a(I181
I75
tp3274
a(I181
I76
tp3275
a(I181
I77
tp3276
a(I181
I78
tp3277
a(I181
I79
tp3278
a(I181
I80
tp3279
a(I181
I81
tp3280
a(I181
I82
tp3281
a(I181
I83
tp3282
a(I181
I84
tp3283
a(I181
I85
tp3284
a(I181
I86
tp3285
a(I181
I87
tp3286
a(I181
I88
tp3287
a(I181
I89
tp3288
a(I181
I90
tp3289
a(I181
I91
tp3290
a(I181
I92
tp3291
a(I181
I93
tp3292
a(I181
I94
tp3293
a(I181
I95
tp3294
a(I181
I96
tp3295
a(I181
I97
tp3296
a(I181
I98
tp3297
a(I181
I99
tp3298
a(I181
I100
tp3299
a(I181
I101
tp3300
a(I181
I102
tp3301
a(I181
I103
tp3302
a(I181
I104
tp3303
a(I181
I105
tp3304
a(I181
I106
tp3305
a(I181
I107
tp3306
a(I181
I108
tp3307
a(I181
I109
tp3308
a(I181
I110
tp3309
a(I181
I111
tp3310
a(I181
I112
tp3311
a(I181
I113
tp3312
a(I181
I114
tp3313
a(I181
I115
tp3314
a(I181
I116
tp3315
a(I181
I117
tp3316
a(I181
I118
tp3317
a(I181
I119
tp3318
a(I181
I120
tp3319
a(I181
I121
tp3320
a(I181
I122
tp3321
a(I181
I123
tp3322
a(I181
I124
tp3323
a(I181
I125
tp3324
a(I181
I126
tp3325
a(I181
I127
tp3326
a(I181
I128
tp3327
a(I181
I129
tp3328
a(I181
I130
tp3329
a(I181
I131
tp3330
a(I181
I132
tp3331
a(I181
I133
tp3332
a(I181
I134
tp3333
a(I181
I135
tp3334
a(I181
I136
tp3335
a(I181
I137
tp3336
a(I181
I138
tp3337
a(I181
I139
tp3338
a(I181
I140
tp3339
a(I181
I141
tp3340
a(I181
I142
tp3341
a(I181
I143
tp3342
a(I181
I144
tp3343
a(I181
I145
tp3344
a(I181
I146
tp3345
a(I181
I147
tp3346
a(I181
I148
tp3347
a(I181
I149
tp3348
a(I181
I150
tp3349
a(I181
I151
tp3350
a(I181
I152
tp3351
a(I181
I153
tp3352
a(I181
I154
tp3353
a(I181
I155
tp3354
a(I181
I156
tp3355
a(I181
I157
tp3356
a(I181
I158
tp3357
a(I181
I159
tp3358
a(I181
I160
tp3359
a(I181
I161
tp3360
a(I181
I162
tp3361
a(I181
I163
tp3362
a(I181
I164
tp3363
a(I181
I165
tp3364
a(I181
I166
tp3365
a(I181
I167
tp3366
a(I181
I168
tp3367
a(I181
I169
tp3368
a(I181
I170
tp3369
a(I181
I171
tp3370
a(I181
I172
tp3371
a(I181
I173
tp3372
a(I181
I174
tp3373
a(I181
I175
tp3374
a(I181
I176
tp3375
a(I181
I177
tp3376
a(I181
I178
tp3377
a(I181
I179
tp3378
a(I181
I180
tp3379
a(I181
I181
tp3380
a(I181
I182
tp3381
a(I181
I183
tp3382
a(I181
I184
tp3383
a(I182
I9
tp3384
a(I182
I10
tp3385
a(I182
I11
tp3386
a(I182
I12
tp3387
a(I182
I13
tp3388
a(I182
I14
tp3389
a(I182
I15
tp3390
a(I182
I16
tp3391
a(I182
I17
tp3392
a(I182
I18
tp3393
a(I182
I19
tp3394
a(I182
I20
tp3395
a(I182
I21
tp3396
a(I182
I22
tp3397
a(I182
I23
tp3398
a(I182
I24
tp3399
a(I182
I25
tp3400
a(I182
I26
tp3401
a(I182
I27
tp3402
a(I182
I28
tp3403
a(I182
I29
tp3404
a(I182
I30
tp3405
a(I182
I31
tp3406
a(I182
I32
tp3407
a(I182
I33
tp3408
a(I182
I34
tp3409
a(I182
I35
tp3410
a(I182
I36
tp3411
a(I182
I37
tp3412
a(I182
I38
tp3413
a(I182
I39
tp3414
a(I182
I40
tp3415
a(I182
I41
tp3416
a(I182
I42
tp3417
a(I182
I43
tp3418
a(I182
I44
tp3419
a(I182
I45
tp3420
a(I182
I46
tp3421
a(I182
I47
tp3422
a(I182
I48
tp3423
a(I182
I49
tp3424
a(I182
I50
tp3425
a(I182
I51
tp3426
a(I182
I52
tp3427
a(I182
I53
tp3428
a(I182
I54
tp3429
a(I182
I55
tp3430
a(I182
I56
tp3431
a(I182
I57
tp3432
a(I182
I58
tp3433
a(I182
I59
tp3434
a(I182
I60
tp3435
a(I182
I61
tp3436
a(I182
I62
tp3437
a(I182
I63
tp3438
a(I182
I64
tp3439
a(I182
I65
tp3440
a(I182
I66
tp3441
a(I182
I67
tp3442
a(I182
I68
tp3443
a(I182
I69
tp3444
a(I182
I70
tp3445
a(I182
I71
tp3446
a(I182
I72
tp3447
a(I182
I73
tp3448
a(I182
I74
tp3449
a(I182
I75
tp3450
a(I182
I76
tp3451
a(I182
I77
tp3452
a(I182
I78
tp3453
a(I182
I79
tp3454
a(I182
I80
tp3455
a(I182
I81
tp3456
a(I182
I82
tp3457
a(I182
I83
tp3458
a(I182
I84
tp3459
a(I182
I85
tp3460
a(I182
I86
tp3461
a(I182
I87
tp3462
a(I182
I88
tp3463
a(I182
I89
tp3464
a(I182
I90
tp3465
a(I182
I91
tp3466
a(I182
I92
tp3467
a(I182
I93
tp3468
a(I182
I94
tp3469
a(I182
I95
tp3470
a(I182
I96
tp3471
a(I182
I97
tp3472
a(I182
I98
tp3473
a(I182
I99
tp3474
a(I182
I100
tp3475
a(I182
I101
tp3476
a(I182
I102
tp3477
a(I182
I103
tp3478
a(I182
I104
tp3479
a(I182
I105
tp3480
a(I182
I106
tp3481
a(I182
I107
tp3482
a(I182
I108
tp3483
a(I182
I109
tp3484
a(I182
I110
tp3485
a(I182
I111
tp3486
a(I182
I112
tp3487
a(I182
I113
tp3488
a(I182
I114
tp3489
a(I182
I115
tp3490
a(I182
I116
tp3491
a(I182
I117
tp3492
a(I182
I118
tp3493
a(I182
I119
tp3494
a(I182
I120
tp3495
a(I182
I121
tp3496
a(I182
I122
tp3497
a(I182
I123
tp3498
a(I182
I124
tp3499
a(I182
I125
tp3500
a(I182
I126
tp3501
a(I182
I127
tp3502
a(I182
I128
tp3503
a(I182
I129
tp3504
a(I182
I130
tp3505
a(I182
I131
tp3506
a(I182
I132
tp3507
a(I182
I133
tp3508
a(I182
I134
tp3509
a(I182
I135
tp3510
a(I182
I136
tp3511
a(I182
I137
tp3512
a(I182
I138
tp3513
a(I182
I139
tp3514
a(I182
I140
tp3515
a(I182
I141
tp3516
a(I182
I142
tp3517
a(I182
I143
tp3518
a(I182
I144
tp3519
a(I182
I145
tp3520
a(I182
I146
tp3521
a(I182
I147
tp3522
a(I182
I148
tp3523
a(I182
I149
tp3524
a(I182
I150
tp3525
a(I182
I151
tp3526
a(I182
I152
tp3527
a(I182
I153
tp3528
a(I182
I154
tp3529
a(I182
I155
tp3530
a(I182
I156
tp3531
a(I182
I157
tp3532
a(I182
I158
tp3533
a(I182
I159
tp3534
a(I182
I160
tp3535
a(I182
I161
tp3536
a(I182
I162
tp3537
a(I182
I163
tp3538
a(I182
I164
tp3539
a(I182
I165
tp3540
a(I182
I166
tp3541
a(I182
I167
tp3542
a(I182
I168
tp3543
a(I182
I169
tp3544
a(I182
I170
tp3545
a(I182
I171
tp3546
a(I182
I172
tp3547
a(I182
I173
tp3548
a(I182
I174
tp3549
a(I182
I175
tp3550
a(I182
I176
tp3551
a(I182
I177
tp3552
a(I182
I178
tp3553
a(I182
I179
tp3554
a(I182
I180
tp3555
a(I182
I181
tp3556
a(I182
I182
tp3557
a(I182
I183
tp3558
a(I182
I184
tp3559
a.